
kernel:     file format elf32-i386-freebsd

Disassembly of section .text:

00100000 <binit>:
struct buf bufhead;

void
binit(void)
{
  100000:	55                   	push   %ebp
  100001:	89 e5                	mov    %esp,%ebp
  100003:	83 ec 18             	sub    $0x18,%esp
  struct buf *b;

  initlock(&buf_table_lock, "buf_table");
  100006:	c7 44 24 04 ac a1 11 	movl   $0x11a1ac,0x4(%esp)
  10000d:	00 
  10000e:	c7 04 24 e0 b0 13 00 	movl   $0x13b0e0,(%esp)
  100015:	e8 f6 5a 00 00       	call   105b10 <initlock>

  // Create linked list of buffers
  bufhead.prev = &bufhead;
  10001a:	c7 05 cc 99 13 00 c0 	movl   $0x1399c0,0x1399cc
  100021:	99 13 00 
  bufhead.next = &bufhead;
  100024:	c7 05 d0 99 13 00 c0 	movl   $0x1399c0,0x1399d0
  10002b:	99 13 00 
  for(b = buf; b < buf+NBUF; b++){
  10002e:	c7 45 fc e0 9b 13 00 	movl   $0x139be0,0xfffffffc(%ebp)
  100035:	eb 31                	jmp    100068 <binit+0x68>
    b->next = bufhead.next;
  100037:	8b 15 d0 99 13 00    	mov    0x1399d0,%edx
  10003d:	8b 45 fc             	mov    0xfffffffc(%ebp),%eax
  100040:	89 50 10             	mov    %edx,0x10(%eax)
    b->prev = &bufhead;
  100043:	8b 45 fc             	mov    0xfffffffc(%ebp),%eax
  100046:	c7 40 0c c0 99 13 00 	movl   $0x1399c0,0xc(%eax)
    bufhead.next->prev = b;
  10004d:	8b 15 d0 99 13 00    	mov    0x1399d0,%edx
  100053:	8b 45 fc             	mov    0xfffffffc(%ebp),%eax
  100056:	89 42 0c             	mov    %eax,0xc(%edx)
    bufhead.next = b;
  100059:	8b 45 fc             	mov    0xfffffffc(%ebp),%eax
  10005c:	a3 d0 99 13 00       	mov    %eax,0x1399d0
  100061:	81 45 fc 18 02 00 00 	addl   $0x218,0xfffffffc(%ebp)
  100068:	b8 d0 b0 13 00       	mov    $0x13b0d0,%eax
  10006d:	39 45 fc             	cmp    %eax,0xfffffffc(%ebp)
  100070:	72 c5                	jb     100037 <binit+0x37>
  }
}
  100072:	c9                   	leave  
  100073:	c3                   	ret    
  100074:	8d b6 00 00 00 00    	lea    0x0(%esi),%esi
  10007a:	8d bf 00 00 00 00    	lea    0x0(%edi),%edi

00100080 <bget>:

// Look through buffer cache for sector on device dev.
// If not found, allocate fresh block.
// In either case, return locked buffer.
static struct buf*
bget(uint dev, uint sector)
{
  100080:	55                   	push   %ebp
  100081:	89 e5                	mov    %esp,%ebp
  100083:	83 ec 28             	sub    $0x28,%esp
  struct buf *b;

  acquire(&buf_table_lock);
  100086:	c7 04 24 e0 b0 13 00 	movl   $0x13b0e0,(%esp)
  10008d:	e8 ae 5a 00 00       	call   105b40 <acquire>

 loop:
  // Try for cached block.
  for(b = bufhead.next; b != &bufhead; b = b->next){
  100092:	a1 d0 99 13 00       	mov    0x1399d0,%eax
  100097:	89 45 fc             	mov    %eax,0xfffffffc(%ebp)
  10009a:	eb 70                	jmp    10010c <bget+0x8c>
    if((b->flags & (B_BUSY|B_VALID)) &&
  10009c:	8b 45 fc             	mov    0xfffffffc(%ebp),%eax
  10009f:	8b 00                	mov    (%eax),%eax
  1000a1:	83 e0 03             	and    $0x3,%eax
  1000a4:	85 c0                	test   %eax,%eax
  1000a6:	74 5b                	je     100103 <bget+0x83>
  1000a8:	8b 45 fc             	mov    0xfffffffc(%ebp),%eax
  1000ab:	8b 40 04             	mov    0x4(%eax),%eax
  1000ae:	3b 45 08             	cmp    0x8(%ebp),%eax
  1000b1:	75 50                	jne    100103 <bget+0x83>
  1000b3:	8b 45 fc             	mov    0xfffffffc(%ebp),%eax
  1000b6:	8b 40 08             	mov    0x8(%eax),%eax
  1000b9:	3b 45 0c             	cmp    0xc(%ebp),%eax
  1000bc:	75 45                	jne    100103 <bget+0x83>
       b->dev == dev && b->sector == sector){
      if(b->flags & B_BUSY){
  1000be:	8b 45 fc             	mov    0xfffffffc(%ebp),%eax
  1000c1:	8b 00                	mov    (%eax),%eax
  1000c3:	83 e0 01             	and    $0x1,%eax
  1000c6:	84 c0                	test   %al,%al
  1000c8:	74 16                	je     1000e0 <bget+0x60>
        sleep(buf, &buf_table_lock);
  1000ca:	c7 44 24 04 e0 b0 13 	movl   $0x13b0e0,0x4(%esp)
  1000d1:	00 
  1000d2:	c7 04 24 e0 9b 13 00 	movl   $0x139be0,(%esp)
  1000d9:	e8 b2 53 00 00       	call   105490 <sleep>
        goto loop;
  1000de:	eb b2                	jmp    100092 <bget+0x12>
      }
      b->flags |= B_BUSY;
  1000e0:	8b 45 fc             	mov    0xfffffffc(%ebp),%eax
  1000e3:	8b 00                	mov    (%eax),%eax
  1000e5:	89 c2                	mov    %eax,%edx
  1000e7:	83 ca 01             	or     $0x1,%edx
  1000ea:	8b 45 fc             	mov    0xfffffffc(%ebp),%eax
  1000ed:	89 10                	mov    %edx,(%eax)
      release(&buf_table_lock);
  1000ef:	c7 04 24 e0 b0 13 00 	movl   $0x13b0e0,(%esp)
  1000f6:	e8 45 5c 00 00       	call   105d40 <release>
      return b;
  1000fb:	8b 45 fc             	mov    0xfffffffc(%ebp),%eax
  1000fe:	89 45 ec             	mov    %eax,0xffffffec(%ebp)
  100101:	eb 75                	jmp    100178 <bget+0xf8>
  100103:	8b 45 fc             	mov    0xfffffffc(%ebp),%eax
  100106:	8b 40 10             	mov    0x10(%eax),%eax
  100109:	89 45 fc             	mov    %eax,0xfffffffc(%ebp)
  10010c:	81 7d fc c0 99 13 00 	cmpl   $0x1399c0,0xfffffffc(%ebp)
  100113:	75 87                	jne    10009c <bget+0x1c>
    }
  }

  // Allocate fresh block.
  for(b = bufhead.prev; b != &bufhead; b = b->prev){
  100115:	a1 cc 99 13 00       	mov    0x1399cc,%eax
  10011a:	89 45 fc             	mov    %eax,0xfffffffc(%ebp)
  10011d:	eb 44                	jmp    100163 <bget+0xe3>
    if((b->flags & B_BUSY) == 0){
  10011f:	8b 45 fc             	mov    0xfffffffc(%ebp),%eax
  100122:	8b 00                	mov    (%eax),%eax
  100124:	83 e0 01             	and    $0x1,%eax
  100127:	85 c0                	test   %eax,%eax
  100129:	75 2f                	jne    10015a <bget+0xda>
      b->flags = B_BUSY;
  10012b:	8b 45 fc             	mov    0xfffffffc(%ebp),%eax
  10012e:	c7 00 01 00 00 00    	movl   $0x1,(%eax)
      b->dev = dev;
  100134:	8b 55 fc             	mov    0xfffffffc(%ebp),%edx
  100137:	8b 45 08             	mov    0x8(%ebp),%eax
  10013a:	89 42 04             	mov    %eax,0x4(%edx)
      b->sector = sector;
  10013d:	8b 55 fc             	mov    0xfffffffc(%ebp),%edx
  100140:	8b 45 0c             	mov    0xc(%ebp),%eax
  100143:	89 42 08             	mov    %eax,0x8(%edx)
      release(&buf_table_lock);
  100146:	c7 04 24 e0 b0 13 00 	movl   $0x13b0e0,(%esp)
  10014d:	e8 ee 5b 00 00       	call   105d40 <release>
      return b;
  100152:	8b 45 fc             	mov    0xfffffffc(%ebp),%eax
  100155:	89 45 ec             	mov    %eax,0xffffffec(%ebp)
  100158:	eb 1e                	jmp    100178 <bget+0xf8>
  10015a:	8b 45 fc             	mov    0xfffffffc(%ebp),%eax
  10015d:	8b 40 0c             	mov    0xc(%eax),%eax
  100160:	89 45 fc             	mov    %eax,0xfffffffc(%ebp)
  100163:	81 7d fc c0 99 13 00 	cmpl   $0x1399c0,0xfffffffc(%ebp)
  10016a:	75 b3                	jne    10011f <bget+0x9f>
    }
  }
  panic("bget: no buffers");
  10016c:	c7 04 24 b6 a1 11 00 	movl   $0x11a1b6,(%esp)
  100173:	e8 98 0e 00 00       	call   101010 <panic>
  100178:	8b 45 ec             	mov    0xffffffec(%ebp),%eax
}
  10017b:	c9                   	leave  
  10017c:	c3                   	ret    
  10017d:	8d 76 00             	lea    0x0(%esi),%esi

00100180 <bread>:

// Return a B_BUSY buf with the contents of the indicated disk sector.
struct buf*
bread(uint dev, uint sector)
{
  100180:	55                   	push   %ebp
  100181:	89 e5                	mov    %esp,%ebp
  100183:	83 ec 18             	sub    $0x18,%esp
  struct buf *b;

  b = bget(dev, sector);
  100186:	8b 45 0c             	mov    0xc(%ebp),%eax
  100189:	89 44 24 04          	mov    %eax,0x4(%esp)
  10018d:	8b 45 08             	mov    0x8(%ebp),%eax
  100190:	89 04 24             	mov    %eax,(%esp)
  100193:	e8 e8 fe ff ff       	call   100080 <bget>
  100198:	89 45 fc             	mov    %eax,0xfffffffc(%ebp)
  if(!(b->flags & B_VALID))
  10019b:	8b 45 fc             	mov    0xfffffffc(%ebp),%eax
  10019e:	8b 00                	mov    (%eax),%eax
  1001a0:	83 e0 02             	and    $0x2,%eax
  1001a3:	85 c0                	test   %eax,%eax
  1001a5:	75 0b                	jne    1001b2 <bread+0x32>
    ide_rw(b);
  1001a7:	8b 45 fc             	mov    0xfffffffc(%ebp),%eax
  1001aa:	89 04 24             	mov    %eax,(%esp)
  1001ad:	e8 de 2e 00 00       	call   103090 <ide_rw>
  return b;
  1001b2:	8b 45 fc             	mov    0xfffffffc(%ebp),%eax
}
  1001b5:	c9                   	leave  
  1001b6:	c3                   	ret    
  1001b7:	89 f6                	mov    %esi,%esi
  1001b9:	8d bc 27 00 00 00 00 	lea    0x0(%edi),%edi

001001c0 <bwrite>:

// Write buf's contents to disk.  Must be locked.
void
bwrite(struct buf *b)
{
  1001c0:	55                   	push   %ebp
  1001c1:	89 e5                	mov    %esp,%ebp
  1001c3:	83 ec 08             	sub    $0x8,%esp
  if((b->flags & B_BUSY) == 0)
  1001c6:	8b 45 08             	mov    0x8(%ebp),%eax
  1001c9:	8b 00                	mov    (%eax),%eax
  1001cb:	83 e0 01             	and    $0x1,%eax
  1001ce:	85 c0                	test   %eax,%eax
  1001d0:	75 0c                	jne    1001de <bwrite+0x1e>
    panic("bwrite");
  1001d2:	c7 04 24 c7 a1 11 00 	movl   $0x11a1c7,(%esp)
  1001d9:	e8 32 0e 00 00       	call   101010 <panic>
  b->flags |= B_DIRTY;
  1001de:	8b 45 08             	mov    0x8(%ebp),%eax
  1001e1:	8b 00                	mov    (%eax),%eax
  1001e3:	89 c2                	mov    %eax,%edx
  1001e5:	83 ca 04             	or     $0x4,%edx
  1001e8:	8b 45 08             	mov    0x8(%ebp),%eax
  1001eb:	89 10                	mov    %edx,(%eax)
  ide_rw(b);
  1001ed:	8b 45 08             	mov    0x8(%ebp),%eax
  1001f0:	89 04 24             	mov    %eax,(%esp)
  1001f3:	e8 98 2e 00 00       	call   103090 <ide_rw>
}
  1001f8:	c9                   	leave  
  1001f9:	c3                   	ret    
  1001fa:	8d b6 00 00 00 00    	lea    0x0(%esi),%esi

00100200 <brelse>:

// Release the buffer buf.
void
brelse(struct buf *b)
{
  100200:	55                   	push   %ebp
  100201:	89 e5                	mov    %esp,%ebp
  100203:	83 ec 08             	sub    $0x8,%esp
  if((b->flags & B_BUSY) == 0)
  100206:	8b 45 08             	mov    0x8(%ebp),%eax
  100209:	8b 00                	mov    (%eax),%eax
  10020b:	83 e0 01             	and    $0x1,%eax
  10020e:	85 c0                	test   %eax,%eax
  100210:	75 0c                	jne    10021e <brelse+0x1e>
    panic("brelse");
  100212:	c7 04 24 ce a1 11 00 	movl   $0x11a1ce,(%esp)
  100219:	e8 f2 0d 00 00       	call   101010 <panic>

  acquire(&buf_table_lock);
  10021e:	c7 04 24 e0 b0 13 00 	movl   $0x13b0e0,(%esp)
  100225:	e8 16 59 00 00       	call   105b40 <acquire>

  b->next->prev = b->prev;
  10022a:	8b 45 08             	mov    0x8(%ebp),%eax
  10022d:	8b 50 10             	mov    0x10(%eax),%edx
  100230:	8b 45 08             	mov    0x8(%ebp),%eax
  100233:	8b 40 0c             	mov    0xc(%eax),%eax
  100236:	89 42 0c             	mov    %eax,0xc(%edx)
  b->prev->next = b->next;
  100239:	8b 45 08             	mov    0x8(%ebp),%eax
  10023c:	8b 50 0c             	mov    0xc(%eax),%edx
  10023f:	8b 45 08             	mov    0x8(%ebp),%eax
  100242:	8b 40 10             	mov    0x10(%eax),%eax
  100245:	89 42 10             	mov    %eax,0x10(%edx)
  b->next = bufhead.next;
  100248:	8b 15 d0 99 13 00    	mov    0x1399d0,%edx
  10024e:	8b 45 08             	mov    0x8(%ebp),%eax
  100251:	89 50 10             	mov    %edx,0x10(%eax)
  b->prev = &bufhead;
  100254:	8b 45 08             	mov    0x8(%ebp),%eax
  100257:	c7 40 0c c0 99 13 00 	movl   $0x1399c0,0xc(%eax)
  bufhead.next->prev = b;
  10025e:	8b 15 d0 99 13 00    	mov    0x1399d0,%edx
  100264:	8b 45 08             	mov    0x8(%ebp),%eax
  100267:	89 42 0c             	mov    %eax,0xc(%edx)
  bufhead.next = b;
  10026a:	8b 45 08             	mov    0x8(%ebp),%eax
  10026d:	a3 d0 99 13 00       	mov    %eax,0x1399d0

  b->flags &= ~B_BUSY;
  100272:	8b 45 08             	mov    0x8(%ebp),%eax
  100275:	8b 00                	mov    (%eax),%eax
  100277:	89 c2                	mov    %eax,%edx
  100279:	83 e2 fe             	and    $0xfffffffe,%edx
  10027c:	8b 45 08             	mov    0x8(%ebp),%eax
  10027f:	89 10                	mov    %edx,(%eax)
  wakeup(buf);
  100281:	c7 04 24 e0 9b 13 00 	movl   $0x139be0,(%esp)
  100288:	e8 93 53 00 00       	call   105620 <wakeup>

  release(&buf_table_lock);
  10028d:	c7 04 24 e0 b0 13 00 	movl   $0x13b0e0,(%esp)
  100294:	e8 a7 5a 00 00       	call   105d40 <release>
}
  100299:	c9                   	leave  
  10029a:	c3                   	ret    
  10029b:	90                   	nop    
  10029c:	90                   	nop    
  10029d:	90                   	nop    
  10029e:	90                   	nop    
  10029f:	90                   	nop    

001002a0 <lpt_putc>:
// .bochsrc to copy to the stdout:
//   parport1: enabled=1, file="/dev/stdout"
static void
lpt_putc(int c)
{
  1002a0:	55                   	push   %ebp
  1002a1:	89 e5                	mov    %esp,%ebp
  1002a3:	83 ec 18             	sub    $0x18,%esp
  int i;

  for(i = 0; !(inb(LPTPORT+1) & 0x80) && i < 12800; i++)
  1002a6:	c7 45 fc 00 00 00 00 	movl   $0x0,0xfffffffc(%ebp)
  1002ad:	eb 04                	jmp    1002b3 <lpt_putc+0x13>
  1002af:	83 45 fc 01          	addl   $0x1,0xfffffffc(%ebp)
  1002b3:	c7 04 24 79 03 00 00 	movl   $0x379,(%esp)
  1002ba:	e8 61 00 00 00       	call   100320 <inb>
  1002bf:	84 c0                	test   %al,%al
  1002c1:	78 09                	js     1002cc <lpt_putc+0x2c>
  1002c3:	81 7d fc ff 31 00 00 	cmpl   $0x31ff,0xfffffffc(%ebp)
  1002ca:	7e e3                	jle    1002af <lpt_putc+0xf>
    ;
  if(c == BACKSPACE)
  1002cc:	81 7d 08 00 01 00 00 	cmpl   $0x100,0x8(%ebp)
  1002d3:	75 07                	jne    1002dc <lpt_putc+0x3c>
    c = '\b';
  1002d5:	c7 45 08 08 00 00 00 	movl   $0x8,0x8(%ebp)
  outb(LPTPORT+0, c);
  1002dc:	8b 45 08             	mov    0x8(%ebp),%eax
  1002df:	0f b6 c0             	movzbl %al,%eax
  1002e2:	89 44 24 04          	mov    %eax,0x4(%esp)
  1002e6:	c7 04 24 78 03 00 00 	movl   $0x378,(%esp)
  1002ed:	e8 4e 00 00 00       	call   100340 <outb>
  outb(LPTPORT+2, 0x08|0x04|0x01);
  1002f2:	c7 44 24 04 0d 00 00 	movl   $0xd,0x4(%esp)
  1002f9:	00 
  1002fa:	c7 04 24 7a 03 00 00 	movl   $0x37a,(%esp)
  100301:	e8 3a 00 00 00       	call   100340 <outb>
  outb(LPTPORT+2, 0x08);
  100306:	c7 44 24 04 08 00 00 	movl   $0x8,0x4(%esp)
  10030d:	00 
  10030e:	c7 04 24 7a 03 00 00 	movl   $0x37a,(%esp)
  100315:	e8 26 00 00 00       	call   100340 <outb>
}
  10031a:	c9                   	leave  
  10031b:	c3                   	ret    
  10031c:	8d 74 26 00          	lea    0x0(%esi),%esi

00100320 <inb>:
// Routines to let C code use special x86 instructions.

static inline uchar
inb(ushort port)
{
  100320:	55                   	push   %ebp
  100321:	89 e5                	mov    %esp,%ebp
  100323:	83 ec 14             	sub    $0x14,%esp
  100326:	8b 45 08             	mov    0x8(%ebp),%eax
  100329:	66 89 45 ec          	mov    %ax,0xffffffec(%ebp)
  uchar data;

  asm volatile("in %1,%0" : "=a" (data) : "d" (port));
  10032d:	0f b7 55 ec          	movzwl 0xffffffec(%ebp),%edx
  100331:	ec                   	in     (%dx),%al
  100332:	88 45 ff             	mov    %al,0xffffffff(%ebp)
  return data;
  100335:	0f b6 45 ff          	movzbl 0xffffffff(%ebp),%eax
}
  100339:	c9                   	leave  
  10033a:	c3                   	ret    
  10033b:	90                   	nop    
  10033c:	8d 74 26 00          	lea    0x0(%esi),%esi

00100340 <outb>:

static inline uint
inl(ushort port)
{
    uint data;

    asm volatile("in %1,%0" : "=a" (data) : "d" (port));
    return data;
}

static inline ushort
inw(ushort port)
{
    ushort data;

    asm volatile("in %1,%0" : "=a" (data) : "d" (port));
    return data;
}

static inline void
insl(int port, void *addr, int cnt)
{
  asm volatile("cld\n\trepne\n\tinsl"     :
                   "=D" (addr), "=c" (cnt)    :
                   "d" (port), "0" (addr), "1" (cnt)  :
                   "memory", "cc");
}

static inline void
outb(ushort port, uchar data)
{
  100340:	55                   	push   %ebp
  100341:	89 e5                	mov    %esp,%ebp
  100343:	83 ec 08             	sub    $0x8,%esp
  100346:	8b 45 08             	mov    0x8(%ebp),%eax
  100349:	8b 55 0c             	mov    0xc(%ebp),%edx
  10034c:	66 89 45 fc          	mov    %ax,0xfffffffc(%ebp)
  100350:	88 55 f8             	mov    %dl,0xfffffff8(%ebp)
  asm volatile("out %0,%1" : : "a" (data), "d" (port));
  100353:	0f b6 45 f8          	movzbl 0xfffffff8(%ebp),%eax
  100357:	0f b7 55 fc          	movzwl 0xfffffffc(%ebp),%edx
  10035b:	ee                   	out    %al,(%dx)
}
  10035c:	c9                   	leave  
  10035d:	c3                   	ret    
  10035e:	89 f6                	mov    %esi,%esi

00100360 <cga_putc>:

static void
cga_putc(int c)
{
  100360:	55                   	push   %ebp
  100361:	89 e5                	mov    %esp,%ebp
  100363:	53                   	push   %ebx
  100364:	83 ec 24             	sub    $0x24,%esp
  int pos;
  
  // Cursor position: col + 80*row.
  outb(CRTPORT, 14);
  100367:	c7 44 24 04 0e 00 00 	movl   $0xe,0x4(%esp)
  10036e:	00 
  10036f:	c7 04 24 d4 03 00 00 	movl   $0x3d4,(%esp)
  100376:	e8 c5 ff ff ff       	call   100340 <outb>
  pos = inb(CRTPORT+1) << 8;
  10037b:	c7 04 24 d5 03 00 00 	movl   $0x3d5,(%esp)
  100382:	e8 99 ff ff ff       	call   100320 <inb>
  100387:	0f b6 c0             	movzbl %al,%eax
  10038a:	c1 e0 08             	shl    $0x8,%eax
  10038d:	89 45 f8             	mov    %eax,0xfffffff8(%ebp)
  outb(CRTPORT, 15);
  100390:	c7 44 24 04 0f 00 00 	movl   $0xf,0x4(%esp)
  100397:	00 
  100398:	c7 04 24 d4 03 00 00 	movl   $0x3d4,(%esp)
  10039f:	e8 9c ff ff ff       	call   100340 <outb>
  pos |= inb(CRTPORT+1);
  1003a4:	c7 04 24 d5 03 00 00 	movl   $0x3d5,(%esp)
  1003ab:	e8 70 ff ff ff       	call   100320 <inb>
  1003b0:	0f b6 c0             	movzbl %al,%eax
  1003b3:	09 45 f8             	or     %eax,0xfffffff8(%ebp)

  if(c == '\n')
  1003b6:	83 7d 08 0a          	cmpl   $0xa,0x8(%ebp)
  1003ba:	75 3e                	jne    1003fa <cga_putc+0x9a>
    pos += 80 - pos%80;
  1003bc:	8b 4d f8             	mov    0xfffffff8(%ebp),%ecx
  1003bf:	c7 45 e4 67 66 66 66 	movl   $0x66666667,0xffffffe4(%ebp)
  1003c6:	8b 45 e4             	mov    0xffffffe4(%ebp),%eax
  1003c9:	f7 e9                	imul   %ecx
  1003cb:	c1 fa 05             	sar    $0x5,%edx
  1003ce:	89 c8                	mov    %ecx,%eax
  1003d0:	c1 f8 1f             	sar    $0x1f,%eax
  1003d3:	89 d3                	mov    %edx,%ebx
  1003d5:	29 c3                	sub    %eax,%ebx
  1003d7:	89 5d e8             	mov    %ebx,0xffffffe8(%ebp)
  1003da:	8b 45 e8             	mov    0xffffffe8(%ebp),%eax
  1003dd:	c1 e0 02             	shl    $0x2,%eax
  1003e0:	03 45 e8             	add    0xffffffe8(%ebp),%eax
  1003e3:	c1 e0 04             	shl    $0x4,%eax
  1003e6:	89 ca                	mov    %ecx,%edx
  1003e8:	29 c2                	sub    %eax,%edx
  1003ea:	89 55 e8             	mov    %edx,0xffffffe8(%ebp)
  1003ed:	b8 50 00 00 00       	mov    $0x50,%eax
  1003f2:	2b 45 e8             	sub    0xffffffe8(%ebp),%eax
  1003f5:	01 45 f8             	add    %eax,0xfffffff8(%ebp)
  1003f8:	eb 48                	jmp    100442 <cga_putc+0xe2>
  else if(c == BACKSPACE){
  1003fa:	81 7d 08 00 01 00 00 	cmpl   $0x100,0x8(%ebp)
  100401:	75 20                	jne    100423 <cga_putc+0xc3>
    if(pos > 0)
  100403:	83 7d f8 00          	cmpl   $0x0,0xfffffff8(%ebp)
  100407:	7e 39                	jle    100442 <cga_putc+0xe2>
      crt[--pos] = ' ' | 0x0700;
  100409:	83 6d f8 01          	subl   $0x1,0xfffffff8(%ebp)
  10040d:	8b 45 f8             	mov    0xfffffff8(%ebp),%eax
  100410:	01 c0                	add    %eax,%eax
  100412:	89 c2                	mov    %eax,%edx
  100414:	a1 a0 c0 11 00       	mov    0x11c0a0,%eax
  100419:	8d 04 02             	lea    (%edx,%eax,1),%eax
  10041c:	66 c7 00 20 07       	movw   $0x720,(%eax)
  100421:	eb 1f                	jmp    100442 <cga_putc+0xe2>
  } else
    crt[pos++] = (c&0xff) | 0x0700;  // black on white
  100423:	8b 45 f8             	mov    0xfffffff8(%ebp),%eax
  100426:	01 c0                	add    %eax,%eax
  100428:	89 c2                	mov    %eax,%edx
  10042a:	a1 a0 c0 11 00       	mov    0x11c0a0,%eax
  10042f:	01 c2                	add    %eax,%edx
  100431:	8b 45 08             	mov    0x8(%ebp),%eax
  100434:	66 25 ff 00          	and    $0xff,%ax
  100438:	80 cc 07             	or     $0x7,%ah
  10043b:	66 89 02             	mov    %ax,(%edx)
  10043e:	83 45 f8 01          	addl   $0x1,0xfffffff8(%ebp)
  
  if((pos/80) >= 24){  // Scroll up.
  100442:	81 7d f8 7f 07 00 00 	cmpl   $0x77f,0xfffffff8(%ebp)
  100449:	7e 4f                	jle    10049a <cga_putc+0x13a>
    memmove(crt, crt+80, sizeof(crt[0])*23*80);
  10044b:	a1 a0 c0 11 00       	mov    0x11c0a0,%eax
  100450:	05 a0 00 00 00       	add    $0xa0,%eax
  100455:	8b 15 a0 c0 11 00    	mov    0x11c0a0,%edx
  10045b:	c7 44 24 08 60 0e 00 	movl   $0xe60,0x8(%esp)
  100462:	00 
  100463:	89 44 24 04          	mov    %eax,0x4(%esp)
  100467:	89 14 24             	mov    %edx,(%esp)
  10046a:	e8 21 5b 00 00       	call   105f90 <memmove>
    pos -= 80;
  10046f:	83 6d f8 50          	subl   $0x50,0xfffffff8(%ebp)
    memset(crt + pos, 0, sizeof(crt[0])*80);
  100473:	8b 45 f8             	mov    0xfffffff8(%ebp),%eax
  100476:	01 c0                	add    %eax,%eax
  100478:	89 c2                	mov    %eax,%edx
  10047a:	a1 a0 c0 11 00       	mov    0x11c0a0,%eax
  10047f:	8d 04 02             	lea    (%edx,%eax,1),%eax
  100482:	c7 44 24 08 a0 00 00 	movl   $0xa0,0x8(%esp)
  100489:	00 
  10048a:	c7 44 24 04 00 00 00 	movl   $0x0,0x4(%esp)
  100491:	00 
  100492:	89 04 24             	mov    %eax,(%esp)
  100495:	e8 66 5a 00 00       	call   105f00 <memset>
  }
  
  outb(CRTPORT, 14);
  10049a:	c7 44 24 04 0e 00 00 	movl   $0xe,0x4(%esp)
  1004a1:	00 
  1004a2:	c7 04 24 d4 03 00 00 	movl   $0x3d4,(%esp)
  1004a9:	e8 92 fe ff ff       	call   100340 <outb>
  outb(CRTPORT+1, pos>>8);
  1004ae:	8b 45 f8             	mov    0xfffffff8(%ebp),%eax
  1004b1:	c1 f8 08             	sar    $0x8,%eax
  1004b4:	0f b6 c0             	movzbl %al,%eax
  1004b7:	89 44 24 04          	mov    %eax,0x4(%esp)
  1004bb:	c7 04 24 d5 03 00 00 	movl   $0x3d5,(%esp)
  1004c2:	e8 79 fe ff ff       	call   100340 <outb>
  outb(CRTPORT, 15);
  1004c7:	c7 44 24 04 0f 00 00 	movl   $0xf,0x4(%esp)
  1004ce:	00 
  1004cf:	c7 04 24 d4 03 00 00 	movl   $0x3d4,(%esp)
  1004d6:	e8 65 fe ff ff       	call   100340 <outb>
  outb(CRTPORT+1, pos);
  1004db:	8b 45 f8             	mov    0xfffffff8(%ebp),%eax
  1004de:	0f b6 c0             	movzbl %al,%eax
  1004e1:	89 44 24 04          	mov    %eax,0x4(%esp)
  1004e5:	c7 04 24 d5 03 00 00 	movl   $0x3d5,(%esp)
  1004ec:	e8 4f fe ff ff       	call   100340 <outb>
  crt[pos] = ' ' | 0x0700;
  1004f1:	8b 45 f8             	mov    0xfffffff8(%ebp),%eax
  1004f4:	01 c0                	add    %eax,%eax
  1004f6:	89 c2                	mov    %eax,%edx
  1004f8:	a1 a0 c0 11 00       	mov    0x11c0a0,%eax
  1004fd:	8d 04 02             	lea    (%edx,%eax,1),%eax
  100500:	66 c7 00 20 07       	movw   $0x720,(%eax)
}
  100505:	83 c4 24             	add    $0x24,%esp
  100508:	5b                   	pop    %ebx
  100509:	5d                   	pop    %ebp
  10050a:	c3                   	ret    
  10050b:	90                   	nop    
  10050c:	8d 74 26 00          	lea    0x0(%esi),%esi

00100510 <cons_putc>:

void
cons_putc(int c)
{
  100510:	55                   	push   %ebp
  100511:	89 e5                	mov    %esp,%ebp
  100513:	83 ec 08             	sub    $0x8,%esp
  if(panicked){
  100516:	a1 00 cd 11 00       	mov    0x11cd00,%eax
  10051b:	85 c0                	test   %eax,%eax
  10051d:	74 07                	je     100526 <cons_putc+0x16>
    cli();
  10051f:	e8 1c 00 00 00       	call   100540 <cli>
    for(;;)
      ;
  100524:	eb fe                	jmp    100524 <cons_putc+0x14>
  }

  lpt_putc(c);
  100526:	8b 45 08             	mov    0x8(%ebp),%eax
  100529:	89 04 24             	mov    %eax,(%esp)
  10052c:	e8 6f fd ff ff       	call   1002a0 <lpt_putc>
  cga_putc(c);
  100531:	8b 45 08             	mov    0x8(%ebp),%eax
  100534:	89 04 24             	mov    %eax,(%esp)
  100537:	e8 24 fe ff ff       	call   100360 <cga_putc>
}
  10053c:	c9                   	leave  
  10053d:	c3                   	ret    
  10053e:	89 f6                	mov    %esi,%esi

00100540 <cli>:
}

static inline void
cli(void)
{
  100540:	55                   	push   %ebp
  100541:	89 e5                	mov    %esp,%ebp
  asm volatile("cli");
  100543:	fa                   	cli    
}
  100544:	5d                   	pop    %ebp
  100545:	c3                   	ret    
  100546:	8d 76 00             	lea    0x0(%esi),%esi
  100549:	8d bc 27 00 00 00 00 	lea    0x0(%edi),%edi

00100550 <printintlen>:

void
printintlen(int xx, int base, int sgn, int len, char fill)
{
  100550:	55                   	push   %ebp
  100551:	89 e5                	mov    %esp,%ebp
  100553:	53                   	push   %ebx
  100554:	83 ec 34             	sub    $0x34,%esp
  100557:	8b 45 18             	mov    0x18(%ebp),%eax
  10055a:	88 45 d8             	mov    %al,0xffffffd8(%ebp)
  static char digits[] = "0123456789ABCDEF";
  char buf[16];
  int i = 0, neg = 0, j = 0;
  10055d:	c7 45 ec 00 00 00 00 	movl   $0x0,0xffffffec(%ebp)
  100564:	c7 45 f0 00 00 00 00 	movl   $0x0,0xfffffff0(%ebp)
  10056b:	c7 45 f4 00 00 00 00 	movl   $0x0,0xfffffff4(%ebp)
  uint x;

  if(sgn && xx < 0){
  100572:	83 7d 10 00          	cmpl   $0x0,0x10(%ebp)
  100576:	74 17                	je     10058f <printintlen+0x3f>
  100578:	83 7d 08 00          	cmpl   $0x0,0x8(%ebp)
  10057c:	79 11                	jns    10058f <printintlen+0x3f>
    neg = 1;
  10057e:	c7 45 f0 01 00 00 00 	movl   $0x1,0xfffffff0(%ebp)
    x = 0 - xx;
  100585:	8b 45 08             	mov    0x8(%ebp),%eax
  100588:	f7 d8                	neg    %eax
  10058a:	89 45 f8             	mov    %eax,0xfffffff8(%ebp)
  10058d:	eb 06                	jmp    100595 <printintlen+0x45>
  } else {
    x = xx;
  10058f:	8b 45 08             	mov    0x8(%ebp),%eax
  100592:	89 45 f8             	mov    %eax,0xfffffff8(%ebp)
  }

  do{
    buf[i++] = digits[x % base];
  100595:	8b 4d ec             	mov    0xffffffec(%ebp),%ecx
  100598:	8b 55 0c             	mov    0xc(%ebp),%edx
  10059b:	8b 45 f8             	mov    0xfffffff8(%ebp),%eax
  10059e:	89 d3                	mov    %edx,%ebx
  1005a0:	ba 00 00 00 00       	mov    $0x0,%edx
  1005a5:	f7 f3                	div    %ebx
  1005a7:	89 d0                	mov    %edx,%eax
  1005a9:	0f b6 80 a4 c0 11 00 	movzbl 0x11c0a4(%eax),%eax
  1005b0:	88 44 0d dc          	mov    %al,0xffffffdc(%ebp,%ecx,1)
  1005b4:	83 45 ec 01          	addl   $0x1,0xffffffec(%ebp)
  }while((x /= base) != 0);
  1005b8:	8b 55 0c             	mov    0xc(%ebp),%edx
  1005bb:	8b 45 f8             	mov    0xfffffff8(%ebp),%eax
  1005be:	89 d1                	mov    %edx,%ecx
  1005c0:	ba 00 00 00 00       	mov    $0x0,%edx
  1005c5:	f7 f1                	div    %ecx
  1005c7:	89 45 f8             	mov    %eax,0xfffffff8(%ebp)
  1005ca:	83 7d f8 00          	cmpl   $0x0,0xfffffff8(%ebp)
  1005ce:	75 c5                	jne    100595 <printintlen+0x45>
  if(neg)
  1005d0:	83 7d f0 00          	cmpl   $0x0,0xfffffff0(%ebp)
  1005d4:	74 0c                	je     1005e2 <printintlen+0x92>
    buf[i++] = '-';
  1005d6:	8b 45 ec             	mov    0xffffffec(%ebp),%eax
  1005d9:	c6 44 05 dc 2d       	movb   $0x2d,0xffffffdc(%ebp,%eax,1)
  1005de:	83 45 ec 01          	addl   $0x1,0xffffffec(%ebp)

  if (i < len)
  1005e2:	8b 45 ec             	mov    0xffffffec(%ebp),%eax
  1005e5:	3b 45 14             	cmp    0x14(%ebp),%eax
  1005e8:	7d 57                	jge    100641 <printintlen+0xf1>
  {
      if (neg)
  1005ea:	83 7d f0 00          	cmpl   $0x0,0xfffffff0(%ebp)
  1005ee:	74 10                	je     100600 <printintlen+0xb0>
      {
          cons_putc('-');
  1005f0:	c7 04 24 2d 00 00 00 	movl   $0x2d,(%esp)
  1005f7:	e8 14 ff ff ff       	call   100510 <cons_putc>
          i--;
  1005fc:	83 6d ec 01          	subl   $0x1,0xffffffec(%ebp)
      }
      j = len - i;
  100600:	8b 45 ec             	mov    0xffffffec(%ebp),%eax
  100603:	8b 55 14             	mov    0x14(%ebp),%edx
  100606:	89 d3                	mov    %edx,%ebx
  100608:	29 c3                	sub    %eax,%ebx
  10060a:	89 d8                	mov    %ebx,%eax
  10060c:	89 45 f4             	mov    %eax,0xfffffff4(%ebp)
      while (j-- > 0)
  10060f:	eb 0c                	jmp    10061d <printintlen+0xcd>
          cons_putc(fill);
  100611:	0f be 45 d8          	movsbl 0xffffffd8(%ebp),%eax
  100615:	89 04 24             	mov    %eax,(%esp)
  100618:	e8 f3 fe ff ff       	call   100510 <cons_putc>
  10061d:	83 7d f4 00          	cmpl   $0x0,0xfffffff4(%ebp)
  100621:	0f 9f c0             	setg   %al
  100624:	83 6d f4 01          	subl   $0x1,0xfffffff4(%ebp)
  100628:	84 c0                	test   %al,%al
  10062a:	75 e5                	jne    100611 <printintlen+0xc1>
  }
  while(--i >= 0)
  10062c:	eb 13                	jmp    100641 <printintlen+0xf1>
    cons_putc(buf[i]);
  10062e:	8b 45 ec             	mov    0xffffffec(%ebp),%eax
  100631:	0f b6 44 05 dc       	movzbl 0xffffffdc(%ebp,%eax,1),%eax
  100636:	0f be c0             	movsbl %al,%eax
  100639:	89 04 24             	mov    %eax,(%esp)
  10063c:	e8 cf fe ff ff       	call   100510 <cons_putc>
  100641:	83 6d ec 01          	subl   $0x1,0xffffffec(%ebp)
  100645:	83 7d ec 00          	cmpl   $0x0,0xffffffec(%ebp)
  100649:	79 e3                	jns    10062e <printintlen+0xde>
}
  10064b:	83 c4 34             	add    $0x34,%esp
  10064e:	5b                   	pop    %ebx
  10064f:	5d                   	pop    %ebp
  100650:	c3                   	ret    
  100651:	eb 0d                	jmp    100660 <printint>
  100653:	90                   	nop    
  100654:	90                   	nop    
  100655:	90                   	nop    
  100656:	90                   	nop    
  100657:	90                   	nop    
  100658:	90                   	nop    
  100659:	90                   	nop    
  10065a:	90                   	nop    
  10065b:	90                   	nop    
  10065c:	90                   	nop    
  10065d:	90                   	nop    
  10065e:	90                   	nop    
  10065f:	90                   	nop    

00100660 <printint>:

void
printint(int xx, int base, int sgn)
{
  100660:	55                   	push   %ebp
  100661:	89 e5                	mov    %esp,%ebp
  100663:	53                   	push   %ebx
  100664:	83 ec 24             	sub    $0x24,%esp
  static char digits[] = "0123456789ABCDEF";
  char buf[16];
  int i = 0, neg = 0;
  100667:	c7 45 f0 00 00 00 00 	movl   $0x0,0xfffffff0(%ebp)
  10066e:	c7 45 f4 00 00 00 00 	movl   $0x0,0xfffffff4(%ebp)
  uint x;

  if(sgn && xx < 0){
  100675:	83 7d 10 00          	cmpl   $0x0,0x10(%ebp)
  100679:	74 17                	je     100692 <printint+0x32>
  10067b:	83 7d 08 00          	cmpl   $0x0,0x8(%ebp)
  10067f:	79 11                	jns    100692 <printint+0x32>
    neg = 1;
  100681:	c7 45 f4 01 00 00 00 	movl   $0x1,0xfffffff4(%ebp)
    x = 0 - xx;
  100688:	8b 45 08             	mov    0x8(%ebp),%eax
  10068b:	f7 d8                	neg    %eax
  10068d:	89 45 f8             	mov    %eax,0xfffffff8(%ebp)
  100690:	eb 06                	jmp    100698 <printint+0x38>
  } else {
    x = xx;
  100692:	8b 45 08             	mov    0x8(%ebp),%eax
  100695:	89 45 f8             	mov    %eax,0xfffffff8(%ebp)
  }

  do{
    buf[i++] = digits[x % base];
  100698:	8b 4d f0             	mov    0xfffffff0(%ebp),%ecx
  10069b:	8b 55 0c             	mov    0xc(%ebp),%edx
  10069e:	8b 45 f8             	mov    0xfffffff8(%ebp),%eax
  1006a1:	89 d3                	mov    %edx,%ebx
  1006a3:	ba 00 00 00 00       	mov    $0x0,%edx
  1006a8:	f7 f3                	div    %ebx
  1006aa:	89 d0                	mov    %edx,%eax
  1006ac:	0f b6 80 b5 c0 11 00 	movzbl 0x11c0b5(%eax),%eax
  1006b3:	88 44 0d e0          	mov    %al,0xffffffe0(%ebp,%ecx,1)
  1006b7:	83 45 f0 01          	addl   $0x1,0xfffffff0(%ebp)
  }while((x /= base) != 0);
  1006bb:	8b 55 0c             	mov    0xc(%ebp),%edx
  1006be:	8b 45 f8             	mov    0xfffffff8(%ebp),%eax
  1006c1:	89 d1                	mov    %edx,%ecx
  1006c3:	ba 00 00 00 00       	mov    $0x0,%edx
  1006c8:	f7 f1                	div    %ecx
  1006ca:	89 45 f8             	mov    %eax,0xfffffff8(%ebp)
  1006cd:	83 7d f8 00          	cmpl   $0x0,0xfffffff8(%ebp)
  1006d1:	75 c5                	jne    100698 <printint+0x38>
  if(neg)
  1006d3:	83 7d f4 00          	cmpl   $0x0,0xfffffff4(%ebp)
  1006d7:	74 21                	je     1006fa <printint+0x9a>
    buf[i++] = '-';
  1006d9:	8b 45 f0             	mov    0xfffffff0(%ebp),%eax
  1006dc:	c6 44 05 e0 2d       	movb   $0x2d,0xffffffe0(%ebp,%eax,1)
  1006e1:	83 45 f0 01          	addl   $0x1,0xfffffff0(%ebp)

  while(--i >= 0)
  1006e5:	eb 13                	jmp    1006fa <printint+0x9a>
    cons_putc(buf[i]);
  1006e7:	8b 45 f0             	mov    0xfffffff0(%ebp),%eax
  1006ea:	0f b6 44 05 e0       	movzbl 0xffffffe0(%ebp,%eax,1),%eax
  1006ef:	0f be c0             	movsbl %al,%eax
  1006f2:	89 04 24             	mov    %eax,(%esp)
  1006f5:	e8 16 fe ff ff       	call   100510 <cons_putc>
  1006fa:	83 6d f0 01          	subl   $0x1,0xfffffff0(%ebp)
  1006fe:	83 7d f0 00          	cmpl   $0x0,0xfffffff0(%ebp)
  100702:	79 e3                	jns    1006e7 <printint+0x87>
}
  100704:	83 c4 24             	add    $0x24,%esp
  100707:	5b                   	pop    %ebx
  100708:	5d                   	pop    %ebp
  100709:	c3                   	ret    
  10070a:	8d b6 00 00 00 00    	lea    0x0(%esi),%esi

00100710 <cprintf>:

enum fmt_types {
    CHAR,
    SHORT,
    LONG,
    LONGLONG,
};

// Print to the console. only understands %d, %x, %p, %s.
void
cprintf(char *fmt, ...)
{
  100710:	55                   	push   %ebp
  100711:	89 e5                	mov    %esp,%ebp
  100713:	83 ec 58             	sub    $0x58,%esp
  int i, c, state, locking, len = 0;
  100716:	c7 45 ec 00 00 00 00 	movl   $0x0,0xffffffec(%ebp)
  uint *argp;
  char *s, last, fill;
  enum fmt_types type;

  locking = use_console_lock;
  10071d:	a1 04 cd 11 00       	mov    0x11cd04,%eax
  100722:	89 45 e8             	mov    %eax,0xffffffe8(%ebp)
  if(locking)
  100725:	83 7d e8 00          	cmpl   $0x0,0xffffffe8(%ebp)
  100729:	74 0c                	je     100737 <cprintf+0x27>
    acquire(&console_lock);
  10072b:	c7 04 24 20 cd 11 00 	movl   $0x11cd20,(%esp)
  100732:	e8 09 54 00 00       	call   105b40 <acquire>

  argp = (uint*)(void*)&fmt + 1;
  100737:	8d 45 08             	lea    0x8(%ebp),%eax
  10073a:	83 c0 04             	add    $0x4,%eax
  10073d:	89 45 f0             	mov    %eax,0xfffffff0(%ebp)
  state = 0;
  100740:	c7 45 e4 00 00 00 00 	movl   $0x0,0xffffffe4(%ebp)
  c = 0;
  100747:	c7 45 e0 00 00 00 00 	movl   $0x0,0xffffffe0(%ebp)
  fill = ' ';
  10074e:	c6 45 fb 20          	movb   $0x20,0xfffffffb(%ebp)
  len = -1;
  100752:	c7 45 ec ff ff ff ff 	movl   $0xffffffff,0xffffffec(%ebp)
  for(i = 0; fmt[i]; i++){
  100759:	c7 45 dc 00 00 00 00 	movl   $0x0,0xffffffdc(%ebp)
  100760:	e9 f2 02 00 00       	jmp    100a57 <cprintf+0x347>
    last = c;
  100765:	8b 45 e0             	mov    0xffffffe0(%ebp),%eax
  100768:	88 45 fa             	mov    %al,0xfffffffa(%ebp)
    c = fmt[i] & 0xff;
  10076b:	8b 55 08             	mov    0x8(%ebp),%edx
  10076e:	8b 45 dc             	mov    0xffffffdc(%ebp),%eax
  100771:	8d 04 02             	lea    (%edx,%eax,1),%eax
  100774:	0f b6 00             	movzbl (%eax),%eax
  100777:	0f be c0             	movsbl %al,%eax
  10077a:	25 ff 00 00 00       	and    $0xff,%eax
  10077f:	89 45 e0             	mov    %eax,0xffffffe0(%ebp)
    switch(state){
  100782:	8b 45 e4             	mov    0xffffffe4(%ebp),%eax
  100785:	89 45 cc             	mov    %eax,0xffffffcc(%ebp)
  100788:	83 7d cc 00          	cmpl   $0x0,0xffffffcc(%ebp)
  10078c:	74 0b                	je     100799 <cprintf+0x89>
  10078e:	83 7d cc 25          	cmpl   $0x25,0xffffffcc(%ebp)
  100792:	74 27                	je     1007bb <cprintf+0xab>
  100794:	e9 ba 02 00 00       	jmp    100a53 <cprintf+0x343>
    case 0:
      if(c == '%')
  100799:	83 7d e0 25          	cmpl   $0x25,0xffffffe0(%ebp)
  10079d:	75 0c                	jne    1007ab <cprintf+0x9b>
        state = '%';
  10079f:	c7 45 e4 25 00 00 00 	movl   $0x25,0xffffffe4(%ebp)
  1007a6:	e9 a8 02 00 00       	jmp    100a53 <cprintf+0x343>
      else
        cons_putc(c);
  1007ab:	8b 45 e0             	mov    0xffffffe0(%ebp),%eax
  1007ae:	89 04 24             	mov    %eax,(%esp)
  1007b1:	e8 5a fd ff ff       	call   100510 <cons_putc>
      break;
  1007b6:	e9 98 02 00 00       	jmp    100a53 <cprintf+0x343>
    
    case '%':
      switch(c){
  1007bb:	8b 55 e0             	mov    0xffffffe0(%ebp),%edx
  1007be:	83 ea 25             	sub    $0x25,%edx
  1007c1:	89 55 c8             	mov    %edx,0xffffffc8(%ebp)
  1007c4:	83 7d c8 53          	cmpl   $0x53,0xffffffc8(%ebp)
  1007c8:	0f 87 6e 02 00 00    	ja     100a3c <cprintf+0x32c>
  1007ce:	8b 55 c8             	mov    0xffffffc8(%ebp),%edx
  1007d1:	8b 04 95 e0 a1 11 00 	mov    0x11a1e0(,%edx,4),%eax
  1007d8:	ff e0                	jmp    *%eax
      case 'l':
        if (last == 'l')
  1007da:	80 7d fa 6c          	cmpb   $0x6c,0xfffffffa(%ebp)
  1007de:	75 0c                	jne    1007ec <cprintf+0xdc>
        {
            // ll: long long
            type = LONGLONG;
  1007e0:	c7 45 fc 03 00 00 00 	movl   $0x3,0xfffffffc(%ebp)
  1007e7:	e9 67 02 00 00       	jmp    100a53 <cprintf+0x343>
        } else {
            type = LONG;
  1007ec:	c7 45 fc 02 00 00 00 	movl   $0x2,0xfffffffc(%ebp)
        }
        break;
  1007f3:	e9 5b 02 00 00       	jmp    100a53 <cprintf+0x343>
      case 'h':
        if (last == 'h')
  1007f8:	80 7d fa 68          	cmpb   $0x68,0xfffffffa(%ebp)
  1007fc:	75 0c                	jne    10080a <cprintf+0xfa>
        {
            // hh: char
            type = CHAR;
  1007fe:	c7 45 fc 00 00 00 00 	movl   $0x0,0xfffffffc(%ebp)
  100805:	e9 49 02 00 00       	jmp    100a53 <cprintf+0x343>
        } else {
            type = SHORT;
  10080a:	c7 45 fc 01 00 00 00 	movl   $0x1,0xfffffffc(%ebp)
        }
        break;
  100811:	e9 3d 02 00 00       	jmp    100a53 <cprintf+0x343>
      case 'c':
        cons_putc(*argp++);
  100816:	8b 45 f0             	mov    0xfffffff0(%ebp),%eax
  100819:	8b 00                	mov    (%eax),%eax
  10081b:	83 45 f0 04          	addl   $0x4,0xfffffff0(%ebp)
  10081f:	89 04 24             	mov    %eax,(%esp)
  100822:	e8 e9 fc ff ff       	call   100510 <cons_putc>
        len = -1;
  100827:	c7 45 ec ff ff ff ff 	movl   $0xffffffff,0xffffffec(%ebp)
        state = 0;
  10082e:	c7 45 e4 00 00 00 00 	movl   $0x0,0xffffffe4(%ebp)
        break;
  100835:	e9 19 02 00 00       	jmp    100a53 <cprintf+0x343>
      case 'd':
      case 'i':
        if (len != -1)
  10083a:	83 7d ec ff          	cmpl   $0xffffffff,0xffffffec(%ebp)
  10083e:	74 34                	je     100874 <cprintf+0x164>
            printintlen(*argp++, 10, 1, len, fill);
  100840:	0f be 55 fb          	movsbl 0xfffffffb(%ebp),%edx
  100844:	8b 45 f0             	mov    0xfffffff0(%ebp),%eax
  100847:	8b 00                	mov    (%eax),%eax
  100849:	89 c1                	mov    %eax,%ecx
  10084b:	83 45 f0 04          	addl   $0x4,0xfffffff0(%ebp)
  10084f:	89 54 24 10          	mov    %edx,0x10(%esp)
  100853:	8b 45 ec             	mov    0xffffffec(%ebp),%eax
  100856:	89 44 24 0c          	mov    %eax,0xc(%esp)
  10085a:	c7 44 24 08 01 00 00 	movl   $0x1,0x8(%esp)
  100861:	00 
  100862:	c7 44 24 04 0a 00 00 	movl   $0xa,0x4(%esp)
  100869:	00 
  10086a:	89 0c 24             	mov    %ecx,(%esp)
  10086d:	e8 de fc ff ff       	call   100550 <printintlen>
  100872:	eb 21                	jmp    100895 <cprintf+0x185>
        else
            printint(*argp++, 10, 1);
  100874:	8b 45 f0             	mov    0xfffffff0(%ebp),%eax
  100877:	8b 00                	mov    (%eax),%eax
  100879:	83 45 f0 04          	addl   $0x4,0xfffffff0(%ebp)
  10087d:	c7 44 24 08 01 00 00 	movl   $0x1,0x8(%esp)
  100884:	00 
  100885:	c7 44 24 04 0a 00 00 	movl   $0xa,0x4(%esp)
  10088c:	00 
  10088d:	89 04 24             	mov    %eax,(%esp)
  100890:	e8 cb fd ff ff       	call   100660 <printint>
        fill = ' ';
  100895:	c6 45 fb 20          	movb   $0x20,0xfffffffb(%ebp)
        len = -1;
  100899:	c7 45 ec ff ff ff ff 	movl   $0xffffffff,0xffffffec(%ebp)
        state = 0;
  1008a0:	c7 45 e4 00 00 00 00 	movl   $0x0,0xffffffe4(%ebp)
        break;
  1008a7:	e9 a7 01 00 00       	jmp    100a53 <cprintf+0x343>
      case 'u':
        if (len != -1)
  1008ac:	83 7d ec ff          	cmpl   $0xffffffff,0xffffffec(%ebp)
  1008b0:	74 34                	je     1008e6 <cprintf+0x1d6>
            printintlen(*argp++, 10, 0, len, fill);
  1008b2:	0f be 55 fb          	movsbl 0xfffffffb(%ebp),%edx
  1008b6:	8b 45 f0             	mov    0xfffffff0(%ebp),%eax
  1008b9:	8b 00                	mov    (%eax),%eax
  1008bb:	89 c1                	mov    %eax,%ecx
  1008bd:	83 45 f0 04          	addl   $0x4,0xfffffff0(%ebp)
  1008c1:	89 54 24 10          	mov    %edx,0x10(%esp)
  1008c5:	8b 45 ec             	mov    0xffffffec(%ebp),%eax
  1008c8:	89 44 24 0c          	mov    %eax,0xc(%esp)
  1008cc:	c7 44 24 08 00 00 00 	movl   $0x0,0x8(%esp)
  1008d3:	00 
  1008d4:	c7 44 24 04 0a 00 00 	movl   $0xa,0x4(%esp)
  1008db:	00 
  1008dc:	89 0c 24             	mov    %ecx,(%esp)
  1008df:	e8 6c fc ff ff       	call   100550 <printintlen>
  1008e4:	eb 21                	jmp    100907 <cprintf+0x1f7>
        else
            printint(*argp++, 10, 0);
  1008e6:	8b 45 f0             	mov    0xfffffff0(%ebp),%eax
  1008e9:	8b 00                	mov    (%eax),%eax
  1008eb:	83 45 f0 04          	addl   $0x4,0xfffffff0(%ebp)
  1008ef:	c7 44 24 08 00 00 00 	movl   $0x0,0x8(%esp)
  1008f6:	00 
  1008f7:	c7 44 24 04 0a 00 00 	movl   $0xa,0x4(%esp)
  1008fe:	00 
  1008ff:	89 04 24             	mov    %eax,(%esp)
  100902:	e8 59 fd ff ff       	call   100660 <printint>
        fill = ' ';
  100907:	c6 45 fb 20          	movb   $0x20,0xfffffffb(%ebp)
        len = -1;
  10090b:	c7 45 ec ff ff ff ff 	movl   $0xffffffff,0xffffffec(%ebp)
        state = 0;
  100912:	c7 45 e4 00 00 00 00 	movl   $0x0,0xffffffe4(%ebp)
        break;
  100919:	e9 35 01 00 00       	jmp    100a53 <cprintf+0x343>
      case 'x':
      case 'p':
        if (len != -1)
  10091e:	83 7d ec ff          	cmpl   $0xffffffff,0xffffffec(%ebp)
  100922:	74 34                	je     100958 <cprintf+0x248>
            printintlen(*argp++, 16, 0, len, fill);
  100924:	0f be 55 fb          	movsbl 0xfffffffb(%ebp),%edx
  100928:	8b 45 f0             	mov    0xfffffff0(%ebp),%eax
  10092b:	8b 00                	mov    (%eax),%eax
  10092d:	89 c1                	mov    %eax,%ecx
  10092f:	83 45 f0 04          	addl   $0x4,0xfffffff0(%ebp)
  100933:	89 54 24 10          	mov    %edx,0x10(%esp)
  100937:	8b 45 ec             	mov    0xffffffec(%ebp),%eax
  10093a:	89 44 24 0c          	mov    %eax,0xc(%esp)
  10093e:	c7 44 24 08 00 00 00 	movl   $0x0,0x8(%esp)
  100945:	00 
  100946:	c7 44 24 04 10 00 00 	movl   $0x10,0x4(%esp)
  10094d:	00 
  10094e:	89 0c 24             	mov    %ecx,(%esp)
  100951:	e8 fa fb ff ff       	call   100550 <printintlen>
  100956:	eb 21                	jmp    100979 <cprintf+0x269>
        else
            printint(*argp++, 16, 0);
  100958:	8b 45 f0             	mov    0xfffffff0(%ebp),%eax
  10095b:	8b 00                	mov    (%eax),%eax
  10095d:	83 45 f0 04          	addl   $0x4,0xfffffff0(%ebp)
  100961:	c7 44 24 08 00 00 00 	movl   $0x0,0x8(%esp)
  100968:	00 
  100969:	c7 44 24 04 10 00 00 	movl   $0x10,0x4(%esp)
  100970:	00 
  100971:	89 04 24             	mov    %eax,(%esp)
  100974:	e8 e7 fc ff ff       	call   100660 <printint>
        fill = ' ';
  100979:	c6 45 fb 20          	movb   $0x20,0xfffffffb(%ebp)
        len = -1;
  10097d:	c7 45 ec ff ff ff ff 	movl   $0xffffffff,0xffffffec(%ebp)
        state = 0;
  100984:	c7 45 e4 00 00 00 00 	movl   $0x0,0xffffffe4(%ebp)
        break;
  10098b:	e9 c3 00 00 00       	jmp    100a53 <cprintf+0x343>
      case 's':
        s = (char*)*argp++;
  100990:	8b 45 f0             	mov    0xfffffff0(%ebp),%eax
  100993:	8b 00                	mov    (%eax),%eax
  100995:	89 45 f4             	mov    %eax,0xfffffff4(%ebp)
  100998:	83 45 f0 04          	addl   $0x4,0xfffffff0(%ebp)
        if(s == 0)
  10099c:	83 7d f4 00          	cmpl   $0x0,0xfffffff4(%ebp)
  1009a0:	75 1e                	jne    1009c0 <cprintf+0x2b0>
          s = "(null)";
  1009a2:	c7 45 f4 d8 a1 11 00 	movl   $0x11a1d8,0xfffffff4(%ebp)
        for(; *s; s++)
  1009a9:	eb 15                	jmp    1009c0 <cprintf+0x2b0>
          cons_putc(*s);
  1009ab:	8b 45 f4             	mov    0xfffffff4(%ebp),%eax
  1009ae:	0f b6 00             	movzbl (%eax),%eax
  1009b1:	0f be c0             	movsbl %al,%eax
  1009b4:	89 04 24             	mov    %eax,(%esp)
  1009b7:	e8 54 fb ff ff       	call   100510 <cons_putc>
  1009bc:	83 45 f4 01          	addl   $0x1,0xfffffff4(%ebp)
  1009c0:	8b 45 f4             	mov    0xfffffff4(%ebp),%eax
  1009c3:	0f b6 00             	movzbl (%eax),%eax
  1009c6:	84 c0                	test   %al,%al
  1009c8:	75 e1                	jne    1009ab <cprintf+0x29b>
        len = -1;
  1009ca:	c7 45 ec ff ff ff ff 	movl   $0xffffffff,0xffffffec(%ebp)
        state = 0;
  1009d1:	c7 45 e4 00 00 00 00 	movl   $0x0,0xffffffe4(%ebp)
        break;
  1009d8:	eb 79                	jmp    100a53 <cprintf+0x343>
      case '%':
        cons_putc('%');
  1009da:	c7 04 24 25 00 00 00 	movl   $0x25,(%esp)
  1009e1:	e8 2a fb ff ff       	call   100510 <cons_putc>
        state = 0;
  1009e6:	c7 45 e4 00 00 00 00 	movl   $0x0,0xffffffe4(%ebp)
        break;
  1009ed:	eb 64                	jmp    100a53 <cprintf+0x343>
      case '0':
        if (len == -1)
  1009ef:	83 7d ec ff          	cmpl   $0xffffffff,0xffffffec(%ebp)
  1009f3:	75 0d                	jne    100a02 <cprintf+0x2f2>
        {
            len = 0;
  1009f5:	c7 45 ec 00 00 00 00 	movl   $0x0,0xffffffec(%ebp)
            fill = '0';
  1009fc:	c6 45 fb 30          	movb   $0x30,0xfffffffb(%ebp)
  100a00:	eb 51                	jmp    100a53 <cprintf+0x343>
        } else {
            len = len * 10;
  100a02:	8b 45 ec             	mov    0xffffffec(%ebp),%eax
  100a05:	89 c2                	mov    %eax,%edx
  100a07:	c1 e2 02             	shl    $0x2,%edx
  100a0a:	01 c2                	add    %eax,%edx
  100a0c:	8d 04 12             	lea    (%edx,%edx,1),%eax
  100a0f:	89 45 ec             	mov    %eax,0xffffffec(%ebp)
        }
        break;
  100a12:	eb 3f                	jmp    100a53 <cprintf+0x343>
      case '1':
      case '2':
      case '3':
      case '4':
      case '5':
      case '6':
      case '7':
      case '8':
      case '9':
        if (len == -1)
  100a14:	83 7d ec ff          	cmpl   $0xffffffff,0xffffffec(%ebp)
  100a18:	75 0b                	jne    100a25 <cprintf+0x315>
            len = c - '0';
  100a1a:	8b 45 e0             	mov    0xffffffe0(%ebp),%eax
  100a1d:	83 e8 30             	sub    $0x30,%eax
  100a20:	89 45 ec             	mov    %eax,0xffffffec(%ebp)
  100a23:	eb 2e                	jmp    100a53 <cprintf+0x343>
        else
            len = len * 10 + c - '0';
  100a25:	8b 55 ec             	mov    0xffffffec(%ebp),%edx
  100a28:	89 d0                	mov    %edx,%eax
  100a2a:	c1 e0 02             	shl    $0x2,%eax
  100a2d:	01 d0                	add    %edx,%eax
  100a2f:	01 c0                	add    %eax,%eax
  100a31:	03 45 e0             	add    0xffffffe0(%ebp),%eax
  100a34:	83 e8 30             	sub    $0x30,%eax
  100a37:	89 45 ec             	mov    %eax,0xffffffec(%ebp)
        break;
  100a3a:	eb 17                	jmp    100a53 <cprintf+0x343>
      default:
        // Print unknown % sequence to draw attention.
        cons_putc('%');
  100a3c:	c7 04 24 25 00 00 00 	movl   $0x25,(%esp)
  100a43:	e8 c8 fa ff ff       	call   100510 <cons_putc>
        cons_putc(c);
  100a48:	8b 45 e0             	mov    0xffffffe0(%ebp),%eax
  100a4b:	89 04 24             	mov    %eax,(%esp)
  100a4e:	e8 bd fa ff ff       	call   100510 <cons_putc>
  100a53:	83 45 dc 01          	addl   $0x1,0xffffffdc(%ebp)
  100a57:	8b 55 08             	mov    0x8(%ebp),%edx
  100a5a:	8b 45 dc             	mov    0xffffffdc(%ebp),%eax
  100a5d:	8d 04 02             	lea    (%edx,%eax,1),%eax
  100a60:	0f b6 00             	movzbl (%eax),%eax
  100a63:	84 c0                	test   %al,%al
  100a65:	0f 85 fa fc ff ff    	jne    100765 <cprintf+0x55>
        break;
      }
      break;
    }
  }

  if(locking)
  100a6b:	83 7d e8 00          	cmpl   $0x0,0xffffffe8(%ebp)
  100a6f:	74 0c                	je     100a7d <cprintf+0x36d>
    release(&console_lock);
  100a71:	c7 04 24 20 cd 11 00 	movl   $0x11cd20,(%esp)
  100a78:	e8 c3 52 00 00       	call   105d40 <release>
}
  100a7d:	c9                   	leave  
  100a7e:	c3                   	ret    
  100a7f:	90                   	nop    

00100a80 <console_write>:

int
console_write(struct inode *ip, char *buf, int n)
{
  100a80:	55                   	push   %ebp
  100a81:	89 e5                	mov    %esp,%ebp
  100a83:	83 ec 18             	sub    $0x18,%esp
  int i;

  iunlock(ip);
  100a86:	8b 45 08             	mov    0x8(%ebp),%eax
  100a89:	89 04 24             	mov    %eax,(%esp)
  100a8c:	e8 8f 14 00 00       	call   101f20 <iunlock>
  acquire(&console_lock);
  100a91:	c7 04 24 20 cd 11 00 	movl   $0x11cd20,(%esp)
  100a98:	e8 a3 50 00 00       	call   105b40 <acquire>
  for(i = 0; i < n; i++)
  100a9d:	c7 45 fc 00 00 00 00 	movl   $0x0,0xfffffffc(%ebp)
  100aa4:	eb 1d                	jmp    100ac3 <console_write+0x43>
    cons_putc(buf[i] & 0xff);
  100aa6:	8b 45 fc             	mov    0xfffffffc(%ebp),%eax
  100aa9:	03 45 0c             	add    0xc(%ebp),%eax
  100aac:	0f b6 00             	movzbl (%eax),%eax
  100aaf:	0f be c0             	movsbl %al,%eax
  100ab2:	25 ff 00 00 00       	and    $0xff,%eax
  100ab7:	89 04 24             	mov    %eax,(%esp)
  100aba:	e8 51 fa ff ff       	call   100510 <cons_putc>
  100abf:	83 45 fc 01          	addl   $0x1,0xfffffffc(%ebp)
  100ac3:	8b 45 fc             	mov    0xfffffffc(%ebp),%eax
  100ac6:	3b 45 10             	cmp    0x10(%ebp),%eax
  100ac9:	7c db                	jl     100aa6 <console_write+0x26>
  release(&console_lock);
  100acb:	c7 04 24 20 cd 11 00 	movl   $0x11cd20,(%esp)
  100ad2:	e8 69 52 00 00       	call   105d40 <release>
  ilock(ip);
  100ad7:	8b 45 08             	mov    0x8(%ebp),%eax
  100ada:	89 04 24             	mov    %eax,(%esp)
  100add:	e8 de 12 00 00       	call   101dc0 <ilock>

  return n;
  100ae2:	8b 45 10             	mov    0x10(%ebp),%eax
}
  100ae5:	c9                   	leave  
  100ae6:	c3                   	ret    
  100ae7:	89 f6                	mov    %esi,%esi
  100ae9:	8d bc 27 00 00 00 00 	lea    0x0(%edi),%edi

00100af0 <console_intr>:

#define INPUT_BUF 128
struct {
  struct spinlock lock;
  char buf[INPUT_BUF];
  int r;  // Read index
  int w;  // Write index
  int e;  // Edit index
} input;

#define C(x)  ((x)-'@')  // Control-x

void
console_intr(int (*getc)(void))
{
  100af0:	55                   	push   %ebp
  100af1:	89 e5                	mov    %esp,%ebp
  100af3:	83 ec 18             	sub    $0x18,%esp
  int c;

  acquire(&input.lock);
  100af6:	c7 04 24 20 b1 13 00 	movl   $0x13b120,(%esp)
  100afd:	e8 3e 50 00 00       	call   105b40 <acquire>
  while((c = getc()) >= 0){
  100b02:	e9 30 01 00 00       	jmp    100c37 <console_intr+0x147>
    switch(c){
  100b07:	8b 45 fc             	mov    0xfffffffc(%ebp),%eax
  100b0a:	89 45 ec             	mov    %eax,0xffffffec(%ebp)
  100b0d:	83 7d ec 10          	cmpl   $0x10,0xffffffec(%ebp)
  100b11:	74 11                	je     100b24 <console_intr+0x34>
  100b13:	83 7d ec 15          	cmpl   $0x15,0xffffffec(%ebp)
  100b17:	74 2e                	je     100b47 <console_intr+0x57>
  100b19:	83 7d ec 08          	cmpl   $0x8,0xffffffec(%ebp)
  100b1d:	74 65                	je     100b84 <console_intr+0x94>
  100b1f:	e9 91 00 00 00       	jmp    100bb5 <console_intr+0xc5>
    case C('P'):  // Process listing.
      procdump();
  100b24:	e8 c7 4e 00 00       	call   1059f0 <procdump>
      break;
  100b29:	e9 09 01 00 00       	jmp    100c37 <console_intr+0x147>
    case C('U'):  // Kill line.
      while(input.e > input.w &&
            input.buf[(input.e-1) % INPUT_BUF] != '\n'){
        input.e--;
  100b2e:	a1 dc b1 13 00       	mov    0x13b1dc,%eax
  100b33:	83 e8 01             	sub    $0x1,%eax
  100b36:	a3 dc b1 13 00       	mov    %eax,0x13b1dc
        cons_putc(BACKSPACE);
  100b3b:	c7 04 24 00 01 00 00 	movl   $0x100,(%esp)
  100b42:	e8 c9 f9 ff ff       	call   100510 <cons_putc>
  100b47:	8b 15 dc b1 13 00    	mov    0x13b1dc,%edx
  100b4d:	a1 d8 b1 13 00       	mov    0x13b1d8,%eax
  100b52:	39 c2                	cmp    %eax,%edx
  100b54:	0f 8e dd 00 00 00    	jle    100c37 <console_intr+0x147>
  100b5a:	a1 dc b1 13 00       	mov    0x13b1dc,%eax
  100b5f:	8d 50 ff             	lea    0xffffffff(%eax),%edx
  100b62:	89 d0                	mov    %edx,%eax
  100b64:	c1 f8 1f             	sar    $0x1f,%eax
  100b67:	89 c1                	mov    %eax,%ecx
  100b69:	c1 e9 19             	shr    $0x19,%ecx
  100b6c:	8d 04 0a             	lea    (%edx,%ecx,1),%eax
  100b6f:	83 e0 7f             	and    $0x7f,%eax
  100b72:	29 c8                	sub    %ecx,%eax
  100b74:	0f b6 80 54 b1 13 00 	movzbl 0x13b154(%eax),%eax
  100b7b:	3c 0a                	cmp    $0xa,%al
  100b7d:	75 af                	jne    100b2e <console_intr+0x3e>
      }
      break;
  100b7f:	e9 b3 00 00 00       	jmp    100c37 <console_intr+0x147>
    case C('H'):  // Backspace
      if(input.e > input.w){
  100b84:	8b 15 dc b1 13 00    	mov    0x13b1dc,%edx
  100b8a:	a1 d8 b1 13 00       	mov    0x13b1d8,%eax
  100b8f:	39 c2                	cmp    %eax,%edx
  100b91:	0f 8e a0 00 00 00    	jle    100c37 <console_intr+0x147>
        input.e--;
  100b97:	a1 dc b1 13 00       	mov    0x13b1dc,%eax
  100b9c:	83 e8 01             	sub    $0x1,%eax
  100b9f:	a3 dc b1 13 00       	mov    %eax,0x13b1dc
        cons_putc(BACKSPACE);
  100ba4:	c7 04 24 00 01 00 00 	movl   $0x100,(%esp)
  100bab:	e8 60 f9 ff ff       	call   100510 <cons_putc>
      }
      break;
  100bb0:	e9 82 00 00 00       	jmp    100c37 <console_intr+0x147>
    default:
      if(c != 0 && input.e < input.r+INPUT_BUF){
  100bb5:	83 7d fc 00          	cmpl   $0x0,0xfffffffc(%ebp)
  100bb9:	74 7c                	je     100c37 <console_intr+0x147>
  100bbb:	a1 dc b1 13 00       	mov    0x13b1dc,%eax
  100bc0:	8b 15 d4 b1 13 00    	mov    0x13b1d4,%edx
  100bc6:	83 ea 80             	sub    $0xffffff80,%edx
  100bc9:	39 d0                	cmp    %edx,%eax
  100bcb:	7d 6a                	jge    100c37 <console_intr+0x147>
        input.buf[input.e++ % INPUT_BUF] = c;
  100bcd:	8b 0d dc b1 13 00    	mov    0x13b1dc,%ecx
  100bd3:	89 c8                	mov    %ecx,%eax
  100bd5:	c1 f8 1f             	sar    $0x1f,%eax
  100bd8:	89 c2                	mov    %eax,%edx
  100bda:	c1 ea 19             	shr    $0x19,%edx
  100bdd:	8d 04 11             	lea    (%ecx,%edx,1),%eax
  100be0:	83 e0 7f             	and    $0x7f,%eax
  100be3:	29 d0                	sub    %edx,%eax
  100be5:	89 c2                	mov    %eax,%edx
  100be7:	8b 45 fc             	mov    0xfffffffc(%ebp),%eax
  100bea:	88 82 54 b1 13 00    	mov    %al,0x13b154(%edx)
  100bf0:	8d 41 01             	lea    0x1(%ecx),%eax
  100bf3:	a3 dc b1 13 00       	mov    %eax,0x13b1dc
        cons_putc(c);
  100bf8:	8b 45 fc             	mov    0xfffffffc(%ebp),%eax
  100bfb:	89 04 24             	mov    %eax,(%esp)
  100bfe:	e8 0d f9 ff ff       	call   100510 <cons_putc>
        if(c == '\n' || c == C('D') || input.e == input.r+INPUT_BUF){
  100c03:	83 7d fc 0a          	cmpl   $0xa,0xfffffffc(%ebp)
  100c07:	74 18                	je     100c21 <console_intr+0x131>
  100c09:	83 7d fc 04          	cmpl   $0x4,0xfffffffc(%ebp)
  100c0d:	74 12                	je     100c21 <console_intr+0x131>
  100c0f:	a1 dc b1 13 00       	mov    0x13b1dc,%eax
  100c14:	8b 15 d4 b1 13 00    	mov    0x13b1d4,%edx
  100c1a:	83 ea 80             	sub    $0xffffff80,%edx
  100c1d:	39 d0                	cmp    %edx,%eax
  100c1f:	75 16                	jne    100c37 <console_intr+0x147>
          input.w = input.e;
  100c21:	a1 dc b1 13 00       	mov    0x13b1dc,%eax
  100c26:	a3 d8 b1 13 00       	mov    %eax,0x13b1d8
          wakeup(&input.r);
  100c2b:	c7 04 24 d4 b1 13 00 	movl   $0x13b1d4,(%esp)
  100c32:	e8 e9 49 00 00       	call   105620 <wakeup>
  100c37:	8b 45 08             	mov    0x8(%ebp),%eax
  100c3a:	ff d0                	call   *%eax
  100c3c:	89 45 fc             	mov    %eax,0xfffffffc(%ebp)
  100c3f:	83 7d fc 00          	cmpl   $0x0,0xfffffffc(%ebp)
  100c43:	0f 89 be fe ff ff    	jns    100b07 <console_intr+0x17>
        }
      }
      break;
    }
  }
  release(&input.lock);
  100c49:	c7 04 24 20 b1 13 00 	movl   $0x13b120,(%esp)
  100c50:	e8 eb 50 00 00       	call   105d40 <release>
}
  100c55:	c9                   	leave  
  100c56:	c3                   	ret    
  100c57:	89 f6                	mov    %esi,%esi
  100c59:	8d bc 27 00 00 00 00 	lea    0x0(%edi),%edi

00100c60 <thread_stub>:

void
thread_stub(void * arg)
{
  100c60:	55                   	push   %ebp
  100c61:	89 e5                	mov    %esp,%ebp
  100c63:	81 ec 38 02 00 00    	sub    $0x238,%esp
/*    static int id = 0;
    id++;
//    int myid = id;
    cprintf("thread_stub started! arg: %d\n", arg);
    int i;
    for (i=0; i<100000000; i++)
    {
        if (i % 100000 == 0)
        cprintf("%d:", myid);
    }*/
  static int in = 0;
  if (in)
  100c69:	a1 08 cd 11 00       	mov    0x11cd08,%eax
  100c6e:	85 c0                	test   %eax,%eax
  100c70:	0f 85 7d 01 00 00    	jne    100df3 <thread_stub+0x193>
      return;
  in = 1;
  100c76:	c7 05 08 cd 11 00 01 	movl   $0x1,0x11cd08
  100c7d:	00 00 00 
  unsigned char data[512];
  int s;
  int len;
  s = lwip_socket(PF_INET, SOCK_STREAM, 0);
  100c80:	c7 44 24 08 00 00 00 	movl   $0x0,0x8(%esp)
  100c87:	00 
  100c88:	c7 44 24 04 01 00 00 	movl   $0x1,0x4(%esp)
  100c8f:	00 
  100c90:	c7 04 24 02 00 00 00 	movl   $0x2,(%esp)
  100c97:	e8 b4 7c 01 00       	call   118950 <lwip_socket>
  100c9c:	89 45 f8             	mov    %eax,0xfffffff8(%ebp)
  struct sockaddr_in sa;
  sa.sin_family = AF_INET;
  100c9f:	c6 85 e5 fd ff ff 02 	movb   $0x2,0xfffffde5(%ebp)
  sa.sin_port = htons(80);
  100ca6:	c7 04 24 50 00 00 00 	movl   $0x50,(%esp)
  100cad:	e8 be d5 00 00       	call   10e270 <htons>
  100cb2:	66 89 85 e6 fd ff ff 	mov    %ax,0xfffffde6(%ebp)
  sa.sin_addr.s_addr = inet_addr("192.168.1.1");
  100cb9:	c7 04 24 30 a3 11 00 	movl   $0x11a330,(%esp)
  100cc0:	e8 cb d1 00 00       	call   10de90 <inet_addr>
  100cc5:	89 85 e8 fd ff ff    	mov    %eax,0xfffffde8(%ebp)
  len = 1;
  100ccb:	c7 85 f4 fd ff ff 01 	movl   $0x1,0xfffffdf4(%ebp)
  100cd2:	00 00 00 
  lwip_setsockopt(s, SOL_SOCKET, SO_REUSEPORT, &len, sizeof(int));
  100cd5:	c7 44 24 10 04 00 00 	movl   $0x4,0x10(%esp)
  100cdc:	00 
  100cdd:	8d 85 f4 fd ff ff    	lea    0xfffffdf4(%ebp),%eax
  100ce3:	89 44 24 0c          	mov    %eax,0xc(%esp)
  100ce7:	c7 44 24 08 00 02 00 	movl   $0x200,0x8(%esp)
  100cee:	00 
  100cef:	c7 44 24 04 ff 0f 00 	movl   $0xfff,0x4(%esp)
  100cf6:	00 
  100cf7:	8b 45 f8             	mov    0xfffffff8(%ebp),%eax
  100cfa:	89 04 24             	mov    %eax,(%esp)
  100cfd:	e8 de 89 01 00       	call   1196e0 <lwip_setsockopt>
  lwip_bind(s, &sa, sizeof(sa));
  100d02:	8d 85 e4 fd ff ff    	lea    0xfffffde4(%ebp),%eax
  100d08:	c7 44 24 08 10 00 00 	movl   $0x10,0x8(%esp)
  100d0f:	00 
  100d10:	89 44 24 04          	mov    %eax,0x4(%esp)
  100d14:	8b 45 f8             	mov    0xfffffff8(%ebp),%eax
  100d17:	89 04 24             	mov    %eax,(%esp)
  100d1a:	e8 a1 74 01 00       	call   1181c0 <lwip_bind>
  int addrlen = sizeof(sa);
  100d1f:	c7 85 e0 fd ff ff 10 	movl   $0x10,0xfffffde0(%ebp)
  100d26:	00 00 00 
//  len = lwip_recvfrom(s, data, sizeof(data), 0, &sa, &addrlen);
//  lwip_sendto(s, data, len, 0, &sa, addrlen);
  int client;
  lwip_listen(s, 1);
  100d29:	c7 44 24 04 01 00 00 	movl   $0x1,0x4(%esp)
  100d30:	00 
  100d31:	8b 45 f8             	mov    0xfffffff8(%ebp),%eax
  100d34:	89 04 24             	mov    %eax,(%esp)
  100d37:	e8 d4 76 01 00       	call   118410 <lwip_listen>
  while ((client = lwip_accept(s, &sa, &addrlen)) > 0)
  100d3c:	eb 74                	jmp    100db2 <thread_stub+0x152>
  {
      do {
        len = lwip_read(client, data, sizeof(data));
  100d3e:	c7 44 24 08 00 02 00 	movl   $0x200,0x8(%esp)
  100d45:	00 
  100d46:	8d 85 f8 fd ff ff    	lea    0xfffffdf8(%ebp),%eax
  100d4c:	89 44 24 04          	mov    %eax,0x4(%esp)
  100d50:	8b 45 fc             	mov    0xfffffffc(%ebp),%eax
  100d53:	89 04 24             	mov    %eax,(%esp)
  100d56:	e8 55 79 01 00       	call   1186b0 <lwip_read>
  100d5b:	89 85 f4 fd ff ff    	mov    %eax,0xfffffdf4(%ebp)
//        cprintf("received %d bytes\n", len);
        lwip_send(client, data, len, 0);
  100d61:	8b 85 f4 fd ff ff    	mov    0xfffffdf4(%ebp),%eax
  100d67:	c7 44 24 0c 00 00 00 	movl   $0x0,0xc(%esp)
  100d6e:	00 
  100d6f:	89 44 24 08          	mov    %eax,0x8(%esp)
  100d73:	8d 85 f8 fd ff ff    	lea    0xfffffdf8(%ebp),%eax
  100d79:	89 44 24 04          	mov    %eax,0x4(%esp)
  100d7d:	8b 45 fc             	mov    0xfffffffc(%ebp),%eax
  100d80:	89 04 24             	mov    %eax,(%esp)
  100d83:	e8 a8 79 01 00       	call   118730 <lwip_send>
        if (data[0] == '!')
  100d88:	0f b6 85 f8 fd ff ff 	movzbl 0xfffffdf8(%ebp),%eax
  100d8f:	3c 21                	cmp    $0x21,%al
  100d91:	75 0a                	jne    100d9d <thread_stub+0x13d>
            len = -1;
  100d93:	c7 85 f4 fd ff ff ff 	movl   $0xffffffff,0xfffffdf4(%ebp)
  100d9a:	ff ff ff 
      } while (len > 0);
  100d9d:	8b 85 f4 fd ff ff    	mov    0xfffffdf4(%ebp),%eax
  100da3:	85 c0                	test   %eax,%eax
  100da5:	7f 97                	jg     100d3e <thread_stub+0xde>
      lwip_close(client);
  100da7:	8b 45 fc             	mov    0xfffffffc(%ebp),%eax
  100daa:	89 04 24             	mov    %eax,(%esp)
  100dad:	e8 ce 74 01 00       	call   118280 <lwip_close>
  100db2:	8d 95 e4 fd ff ff    	lea    0xfffffde4(%ebp),%edx
  100db8:	8d 85 e0 fd ff ff    	lea    0xfffffde0(%ebp),%eax
  100dbe:	89 44 24 08          	mov    %eax,0x8(%esp)
  100dc2:	89 54 24 04          	mov    %edx,0x4(%esp)
  100dc6:	8b 45 f8             	mov    0xfffffff8(%ebp),%eax
  100dc9:	89 04 24             	mov    %eax,(%esp)
  100dcc:	e8 8f 72 01 00       	call   118060 <lwip_accept>
  100dd1:	89 45 fc             	mov    %eax,0xfffffffc(%ebp)
  100dd4:	83 7d fc 00          	cmpl   $0x0,0xfffffffc(%ebp)
  100dd8:	0f 8f 60 ff ff ff    	jg     100d3e <thread_stub+0xde>
  }
  lwip_close(s);
  100dde:	8b 45 f8             	mov    0xfffffff8(%ebp),%eax
  100de1:	89 04 24             	mov    %eax,(%esp)
  100de4:	e8 97 74 01 00       	call   118280 <lwip_close>
  in = 0;
  100de9:	c7 05 08 cd 11 00 00 	movl   $0x0,0x11cd08
  100df0:	00 00 00 
}
  100df3:	c9                   	leave  
  100df4:	c3                   	ret    
  100df5:	8d 74 26 00          	lea    0x0(%esi),%esi
  100df9:	8d bc 27 00 00 00 00 	lea    0x0(%edi),%edi

00100e00 <console_read>:


int
console_read(struct inode *ip, char *dst, int n)
{
  100e00:	55                   	push   %ebp
  100e01:	89 e5                	mov    %esp,%ebp
  100e03:	83 ec 28             	sub    $0x28,%esp
  uint target;
  int c;
  int ret;
//  unsigned char data[100];
  int mark;

//  kproc_start(thread_stub, 0, 0, 0, "[stub thread]");
//  for (c=0; c<10; c++)
//      data[c] = 0xda;
  iunlock(ip);
  100e06:	8b 45 08             	mov    0x8(%ebp),%eax
  100e09:	89 04 24             	mov    %eax,(%esp)
  100e0c:	e8 0f 11 00 00       	call   101f20 <iunlock>
  target = n;
  100e11:	8b 45 10             	mov    0x10(%ebp),%eax
  100e14:	89 45 f0             	mov    %eax,0xfffffff0(%ebp)
  acquire(&input.lock);
  100e17:	c7 04 24 20 b1 13 00 	movl   $0x13b120,(%esp)
  100e1e:	e8 1d 4d 00 00       	call   105b40 <acquire>
  while(n > 0){
  100e23:	e9 c2 00 00 00       	jmp    100eea <console_read+0xea>
    while(input.r == input.w){
      if(cp->killed){
  100e28:	e8 93 2a 00 00       	call   1038c0 <cpu>
  100e2d:	8b 04 85 20 0c 14 00 	mov    0x140c20(,%eax,4),%eax
  100e34:	8b 40 1c             	mov    0x1c(%eax),%eax
  100e37:	85 c0                	test   %eax,%eax
  100e39:	74 23                	je     100e5e <console_read+0x5e>
        release(&input.lock);
  100e3b:	c7 04 24 20 b1 13 00 	movl   $0x13b120,(%esp)
  100e42:	e8 f9 4e 00 00       	call   105d40 <release>
        ilock(ip);
  100e47:	8b 45 08             	mov    0x8(%ebp),%eax
  100e4a:	89 04 24             	mov    %eax,(%esp)
  100e4d:	e8 6e 0f 00 00       	call   101dc0 <ilock>
        return -1;
  100e52:	c7 45 ec ff ff ff ff 	movl   $0xffffffff,0xffffffec(%ebp)
  100e59:	e9 b4 00 00 00       	jmp    100f12 <console_read+0x112>
      }
      mark = 0;
  100e5e:	c7 45 fc 00 00 00 00 	movl   $0x0,0xfffffffc(%ebp)
      sleep(&input.r, &input.lock);
  100e65:	c7 44 24 04 20 b1 13 	movl   $0x13b120,0x4(%esp)
  100e6c:	00 
  100e6d:	c7 04 24 d4 b1 13 00 	movl   $0x13b1d4,(%esp)
  100e74:	e8 17 46 00 00       	call   105490 <sleep>
  100e79:	8b 15 d4 b1 13 00    	mov    0x13b1d4,%edx
  100e7f:	a1 d8 b1 13 00       	mov    0x13b1d8,%eax
  100e84:	39 c2                	cmp    %eax,%edx
  100e86:	74 a0                	je     100e28 <console_read+0x28>
/*      do {
        ret = msleep_spin(&input.r, &input.lock, 1000);
       if (ret)
        {*/
//            if ((mark = lwip_recv(s, data, 
//            sizeof(data), MSG_DONTWAIT)) > 0)
//                cprintf("received from 192.168.1.1:80: %d\n", mark);
/*            if (mark == 0)
            {
                for ( ; mark < 64; mark ++)
                    e100_send(data, sizeof(data));
            }
            int len = e100_receive(data, sizeof(data));
            cprintf("received: %d bytes\n", len);
            int i;
            for (i=0; i<len; i++)
            {
                cprintf("%02x ", data[i]);
                if ((i+1) % 10 == 0)
                    cprintf("\n");
            }
            cprintf("\n");*/
//            kproc_start(thread_stub, (void *)100, 0, 0);
//            cprintf("XXX faster!!\n");
/*        }
      } while (ret);*/
    }
    c = input.buf[input.r++ % INPUT_BUF];
  100e88:	8b 0d d4 b1 13 00    	mov    0x13b1d4,%ecx
  100e8e:	89 c8                	mov    %ecx,%eax
  100e90:	c1 f8 1f             	sar    $0x1f,%eax
  100e93:	89 c2                	mov    %eax,%edx
  100e95:	c1 ea 19             	shr    $0x19,%edx
  100e98:	8d 04 11             	lea    (%ecx,%edx,1),%eax
  100e9b:	83 e0 7f             	and    $0x7f,%eax
  100e9e:	29 d0                	sub    %edx,%eax
  100ea0:	0f b6 80 54 b1 13 00 	movzbl 0x13b154(%eax),%eax
  100ea7:	0f be c0             	movsbl %al,%eax
  100eaa:	89 45 f4             	mov    %eax,0xfffffff4(%ebp)
  100ead:	8d 41 01             	lea    0x1(%ecx),%eax
  100eb0:	a3 d4 b1 13 00       	mov    %eax,0x13b1d4
    if(c == C('D')){  // EOF
  100eb5:	83 7d f4 04          	cmpl   $0x4,0xfffffff4(%ebp)
  100eb9:	75 17                	jne    100ed2 <console_read+0xd2>
      if(n < target){
  100ebb:	8b 45 10             	mov    0x10(%ebp),%eax
  100ebe:	3b 45 f0             	cmp    0xfffffff0(%ebp),%eax
  100ec1:	73 2d                	jae    100ef0 <console_read+0xf0>
        // Save ^D for next time, to make sure
        // caller gets a 0-byte result.
        input.r--;
  100ec3:	a1 d4 b1 13 00       	mov    0x13b1d4,%eax
  100ec8:	83 e8 01             	sub    $0x1,%eax
  100ecb:	a3 d4 b1 13 00       	mov    %eax,0x13b1d4
      }
      break;
  100ed0:	eb 1e                	jmp    100ef0 <console_read+0xf0>
    }
    *dst++ = c;
  100ed2:	8b 45 f4             	mov    0xfffffff4(%ebp),%eax
  100ed5:	89 c2                	mov    %eax,%edx
  100ed7:	8b 45 0c             	mov    0xc(%ebp),%eax
  100eda:	88 10                	mov    %dl,(%eax)
  100edc:	83 45 0c 01          	addl   $0x1,0xc(%ebp)
    --n;
  100ee0:	83 6d 10 01          	subl   $0x1,0x10(%ebp)
    if(c == '\n')
  100ee4:	83 7d f4 0a          	cmpl   $0xa,0xfffffff4(%ebp)
  100ee8:	74 06                	je     100ef0 <console_read+0xf0>
  100eea:	83 7d 10 00          	cmpl   $0x0,0x10(%ebp)
  100eee:	7f 89                	jg     100e79 <console_read+0x79>
      break;
  }
  release(&input.lock);
  100ef0:	c7 04 24 20 b1 13 00 	movl   $0x13b120,(%esp)
  100ef7:	e8 44 4e 00 00       	call   105d40 <release>
  ilock(ip);
  100efc:	8b 45 08             	mov    0x8(%ebp),%eax
  100eff:	89 04 24             	mov    %eax,(%esp)
  100f02:	e8 b9 0e 00 00       	call   101dc0 <ilock>

  return target - n;
  100f07:	8b 55 10             	mov    0x10(%ebp),%edx
  100f0a:	8b 45 f0             	mov    0xfffffff0(%ebp),%eax
  100f0d:	29 d0                	sub    %edx,%eax
  100f0f:	89 45 ec             	mov    %eax,0xffffffec(%ebp)
  100f12:	8b 45 ec             	mov    0xffffffec(%ebp),%eax
}
  100f15:	c9                   	leave  
  100f16:	c3                   	ret    
  100f17:	89 f6                	mov    %esi,%esi
  100f19:	8d bc 27 00 00 00 00 	lea    0x0(%edi),%edi

00100f20 <console_init>:

void
console_init(void)
{
  100f20:	55                   	push   %ebp
  100f21:	89 e5                	mov    %esp,%ebp
  100f23:	83 ec 08             	sub    $0x8,%esp
  initlock(&console_lock, "console");
  100f26:	c7 44 24 04 3c a3 11 	movl   $0x11a33c,0x4(%esp)
  100f2d:	00 
  100f2e:	c7 04 24 20 cd 11 00 	movl   $0x11cd20,(%esp)
  100f35:	e8 d6 4b 00 00       	call   105b10 <initlock>
  initlock(&input.lock, "console input");
  100f3a:	c7 44 24 04 44 a3 11 	movl   $0x11a344,0x4(%esp)
  100f41:	00 
  100f42:	c7 04 24 20 b1 13 00 	movl   $0x13b120,(%esp)
  100f49:	e8 c2 4b 00 00       	call   105b10 <initlock>

  devsw[CONSOLE].write = console_write;
  100f4e:	c7 05 8c bb 13 00 80 	movl   $0x100a80,0x13bb8c
  100f55:	0a 10 00 
  devsw[CONSOLE].read = console_read;
  100f58:	c7 05 88 bb 13 00 00 	movl   $0x100e00,0x13bb88
  100f5f:	0e 10 00 
  //use_console_lock = 1;

  reg_irq_handler(IRQ_KBD, kbd_intr);
  100f62:	c7 44 24 04 70 37 10 	movl   $0x103770,0x4(%esp)
  100f69:	00 
  100f6a:	c7 04 24 01 00 00 00 	movl   $0x1,(%esp)
  100f71:	e8 1a 32 00 00       	call   104190 <reg_irq_handler>
  pic_enable(IRQ_KBD);
  100f76:	c7 04 24 01 00 00 00 	movl   $0x1,(%esp)
  100f7d:	e8 9e 32 00 00       	call   104220 <pic_enable>
  ioapic_enable(IRQ_KBD, 0);
  100f82:	c7 44 24 04 00 00 00 	movl   $0x0,0x4(%esp)
  100f89:	00 
  100f8a:	c7 04 24 01 00 00 00 	movl   $0x1,(%esp)
  100f91:	e8 da 22 00 00       	call   103270 <ioapic_enable>
}
  100f96:	c9                   	leave  
  100f97:	c3                   	ret    
  100f98:	90                   	nop    
  100f99:	8d b4 26 00 00 00 00 	lea    0x0(%esi),%esi

00100fa0 <printstack>:

void
printstack()
{
  100fa0:	55                   	push   %ebp
  100fa1:	89 e5                	mov    %esp,%ebp
  100fa3:	83 ec 38             	sub    $0x38,%esp
  int i;
  uint ebp;
  uint pcs[10];
  cprintf("Stack trace:\n");
  100fa6:	c7 04 24 52 a3 11 00 	movl   $0x11a352,(%esp)
  100fad:	e8 5e f7 ff ff       	call   100710 <cprintf>
  asm("movl %%ebp, %0" : "=r"(ebp) : );
  100fb2:	89 e8                	mov    %ebp,%eax
  100fb4:	89 45 fc             	mov    %eax,0xfffffffc(%ebp)
  getcallerpcs((void*)(ebp+8), pcs);
  100fb7:	8b 45 fc             	mov    0xfffffffc(%ebp),%eax
  100fba:	83 c0 08             	add    $0x8,%eax
  100fbd:	89 c2                	mov    %eax,%edx
  100fbf:	8d 45 d0             	lea    0xffffffd0(%ebp),%eax
  100fc2:	89 44 24 04          	mov    %eax,0x4(%esp)
  100fc6:	89 14 24             	mov    %edx,(%esp)
  100fc9:	e8 42 4e 00 00       	call   105e10 <getcallerpcs>
  for(i=0; i<10; i++)
  100fce:	c7 45 f8 00 00 00 00 	movl   $0x0,0xfffffff8(%ebp)
  100fd5:	eb 1b                	jmp    100ff2 <printstack+0x52>
    cprintf("0x%08x ", pcs[i]);
  100fd7:	8b 45 f8             	mov    0xfffffff8(%ebp),%eax
  100fda:	8b 44 85 d0          	mov    0xffffffd0(%ebp,%eax,4),%eax
  100fde:	89 44 24 04          	mov    %eax,0x4(%esp)
  100fe2:	c7 04 24 60 a3 11 00 	movl   $0x11a360,(%esp)
  100fe9:	e8 22 f7 ff ff       	call   100710 <cprintf>
  100fee:	83 45 f8 01          	addl   $0x1,0xfffffff8(%ebp)
  100ff2:	83 7d f8 09          	cmpl   $0x9,0xfffffff8(%ebp)
  100ff6:	7e df                	jle    100fd7 <printstack+0x37>
  cprintf("\n");
  100ff8:	c7 04 24 68 a3 11 00 	movl   $0x11a368,(%esp)
  100fff:	e8 0c f7 ff ff       	call   100710 <cprintf>
}
  101004:	c9                   	leave  
  101005:	c3                   	ret    
  101006:	8d 76 00             	lea    0x0(%esi),%esi
  101009:	8d bc 27 00 00 00 00 	lea    0x0(%edi),%edi

00101010 <panic>:


void
panic(char *s)
{
  101010:	55                   	push   %ebp
  101011:	89 e5                	mov    %esp,%ebp
  101013:	83 ec 38             	sub    $0x38,%esp
  int i;
  uint pcs[10];
  
  __asm __volatile("cli");
  101016:	fa                   	cli    
  use_console_lock = 0;
  101017:	c7 05 04 cd 11 00 00 	movl   $0x0,0x11cd04
  10101e:	00 00 00 
  cprintf("panic (%d): ", cpu());
  101021:	e8 9a 28 00 00       	call   1038c0 <cpu>
  101026:	89 44 24 04          	mov    %eax,0x4(%esp)
  10102a:	c7 04 24 6a a3 11 00 	movl   $0x11a36a,(%esp)
  101031:	e8 da f6 ff ff       	call   100710 <cprintf>
  cprintf(s, 0);
  101036:	8b 45 08             	mov    0x8(%ebp),%eax
  101039:	c7 44 24 04 00 00 00 	movl   $0x0,0x4(%esp)
  101040:	00 
  101041:	89 04 24             	mov    %eax,(%esp)
  101044:	e8 c7 f6 ff ff       	call   100710 <cprintf>
  cprintf("\n", 0);
  101049:	c7 44 24 04 00 00 00 	movl   $0x0,0x4(%esp)
  101050:	00 
  101051:	c7 04 24 68 a3 11 00 	movl   $0x11a368,(%esp)
  101058:	e8 b3 f6 ff ff       	call   100710 <cprintf>
  getcallerpcs(&s, pcs);
  10105d:	8d 45 d4             	lea    0xffffffd4(%ebp),%eax
  101060:	89 44 24 04          	mov    %eax,0x4(%esp)
  101064:	8d 45 08             	lea    0x8(%ebp),%eax
  101067:	89 04 24             	mov    %eax,(%esp)
  10106a:	e8 a1 4d 00 00       	call   105e10 <getcallerpcs>
  for(i=0; i<10; i++)
  10106f:	c7 45 fc 00 00 00 00 	movl   $0x0,0xfffffffc(%ebp)
  101076:	eb 1b                	jmp    101093 <panic+0x83>
    cprintf(" %p", pcs[i]);
  101078:	8b 45 fc             	mov    0xfffffffc(%ebp),%eax
  10107b:	8b 44 85 d4          	mov    0xffffffd4(%ebp,%eax,4),%eax
  10107f:	89 44 24 04          	mov    %eax,0x4(%esp)
  101083:	c7 04 24 77 a3 11 00 	movl   $0x11a377,(%esp)
  10108a:	e8 81 f6 ff ff       	call   100710 <cprintf>
  10108f:	83 45 fc 01          	addl   $0x1,0xfffffffc(%ebp)
  101093:	83 7d fc 09          	cmpl   $0x9,0xfffffffc(%ebp)
  101097:	7e df                	jle    101078 <panic+0x68>
  panicked = 1; // freeze other CPU
  101099:	c7 05 00 cd 11 00 01 	movl   $0x1,0x11cd00
  1010a0:	00 00 00 
  for(;;)
    ;
  1010a3:	eb fe                	jmp    1010a3 <panic+0x93>
  1010a5:	90                   	nop    
  1010a6:	90                   	nop    
  1010a7:	90                   	nop    
  1010a8:	90                   	nop    
  1010a9:	90                   	nop    
  1010aa:	90                   	nop    
  1010ab:	90                   	nop    
  1010ac:	90                   	nop    
  1010ad:	90                   	nop    
  1010ae:	90                   	nop    
  1010af:	90                   	nop    

001010b0 <exec>:
#include "elf.h"

int
exec(char *path, char **argv)
{
  1010b0:	55                   	push   %ebp
  1010b1:	89 e5                	mov    %esp,%ebp
  1010b3:	53                   	push   %ebx
  1010b4:	81 ec a4 00 00 00    	sub    $0xa4,%esp
  char *mem, *s, *last;
  int i, argc, arglen, len, off;
  uint sz, sp, argp;
  struct elfhdr elf;
  struct inode *ip;
  struct proghdr ph;

  if((ip = namei(path)) == 0)
  1010ba:	8b 45 08             	mov    0x8(%ebp),%eax
  1010bd:	89 04 24             	mov    %eax,(%esp)
  1010c0:	e8 9b 1b 00 00       	call   102c60 <namei>
  1010c5:	89 45 f8             	mov    %eax,0xfffffff8(%ebp)
  1010c8:	83 7d f8 00          	cmpl   $0x0,0xfffffff8(%ebp)
  1010cc:	75 0f                	jne    1010dd <exec+0x2d>
    return -1;
  1010ce:	c7 85 68 ff ff ff ff 	movl   $0xffffffff,0xffffff68(%ebp)
  1010d5:	ff ff ff 
  1010d8:	e9 4e 04 00 00       	jmp    10152b <exec+0x47b>
//  cprintf("XXX exec\n");
  ilock(ip);
  1010dd:	8b 45 f8             	mov    0xfffffff8(%ebp),%eax
  1010e0:	89 04 24             	mov    %eax,(%esp)
  1010e3:	e8 d8 0c 00 00       	call   101dc0 <ilock>

  // Compute memory size of new process.
  mem = 0;
  1010e8:	c7 45 cc 00 00 00 00 	movl   $0x0,0xffffffcc(%ebp)
  sz = 0;
  1010ef:	c7 45 ec 00 00 00 00 	movl   $0x0,0xffffffec(%ebp)

  // Program segments.
  if(readi(ip, (char*)&elf, 0, sizeof(elf)) < sizeof(elf))
  1010f6:	8d 45 98             	lea    0xffffff98(%ebp),%eax
  1010f9:	c7 44 24 0c 34 00 00 	movl   $0x34,0xc(%esp)
  101100:	00 
  101101:	c7 44 24 08 00 00 00 	movl   $0x0,0x8(%esp)
  101108:	00 
  101109:	89 44 24 04          	mov    %eax,0x4(%esp)
  10110d:	8b 45 f8             	mov    0xfffffff8(%ebp),%eax
  101110:	89 04 24             	mov    %eax,(%esp)
  101113:	e8 b8 13 00 00       	call   1024d0 <readi>
  101118:	83 f8 33             	cmp    $0x33,%eax
  10111b:	0f 86 dd 03 00 00    	jbe    1014fe <exec+0x44e>
    goto bad;
  if(elf.magic != ELF_MAGIC)
  101121:	8b 45 98             	mov    0xffffff98(%ebp),%eax
  101124:	3d 7f 45 4c 46       	cmp    $0x464c457f,%eax
  101129:	0f 85 cf 03 00 00    	jne    1014fe <exec+0x44e>
    goto bad;
  for(i=0, off=elf.phoff; i<elf.phnum; i++, off+=sizeof(ph)){
  10112f:	c7 45 d8 00 00 00 00 	movl   $0x0,0xffffffd8(%ebp)
  101136:	8b 45 b4             	mov    0xffffffb4(%ebp),%eax
  101139:	89 45 e8             	mov    %eax,0xffffffe8(%ebp)
  10113c:	eb 59                	jmp    101197 <exec+0xe7>
    if(readi(ip, (char*)&ph, off, sizeof(ph)) != sizeof(ph))
  10113e:	8b 45 e8             	mov    0xffffffe8(%ebp),%eax
  101141:	8d 95 78 ff ff ff    	lea    0xffffff78(%ebp),%edx
  101147:	c7 44 24 0c 20 00 00 	movl   $0x20,0xc(%esp)
  10114e:	00 
  10114f:	89 44 24 08          	mov    %eax,0x8(%esp)
  101153:	89 54 24 04          	mov    %edx,0x4(%esp)
  101157:	8b 45 f8             	mov    0xfffffff8(%ebp),%eax
  10115a:	89 04 24             	mov    %eax,(%esp)
  10115d:	e8 6e 13 00 00       	call   1024d0 <readi>
  101162:	83 f8 20             	cmp    $0x20,%eax
  101165:	0f 85 93 03 00 00    	jne    1014fe <exec+0x44e>
      goto bad;
    if(ph.type != ELF_PROG_LOAD)
  10116b:	8b 85 78 ff ff ff    	mov    0xffffff78(%ebp),%eax
  101171:	83 f8 01             	cmp    $0x1,%eax
  101174:	75 14                	jne    10118a <exec+0xda>
      continue;
    if(ph.memsz < ph.filesz)
  101176:	8b 55 8c             	mov    0xffffff8c(%ebp),%edx
  101179:	8b 45 88             	mov    0xffffff88(%ebp),%eax
  10117c:	39 c2                	cmp    %eax,%edx
  10117e:	0f 82 7a 03 00 00    	jb     1014fe <exec+0x44e>
      goto bad;
    sz += ph.memsz;
  101184:	8b 45 8c             	mov    0xffffff8c(%ebp),%eax
  101187:	01 45 ec             	add    %eax,0xffffffec(%ebp)
  10118a:	83 45 d8 01          	addl   $0x1,0xffffffd8(%ebp)
  10118e:	8b 45 e8             	mov    0xffffffe8(%ebp),%eax
  101191:	83 c0 20             	add    $0x20,%eax
  101194:	89 45 e8             	mov    %eax,0xffffffe8(%ebp)
  101197:	0f b7 45 c4          	movzwl 0xffffffc4(%ebp),%eax
  10119b:	0f b7 c0             	movzwl %ax,%eax
  10119e:	3b 45 d8             	cmp    0xffffffd8(%ebp),%eax
  1011a1:	7f 9b                	jg     10113e <exec+0x8e>
  }
  
  // Arguments.
  arglen = 0;
  1011a3:	c7 45 e0 00 00 00 00 	movl   $0x0,0xffffffe0(%ebp)
  for(argc=0; argv[argc]; argc++)
  1011aa:	c7 45 dc 00 00 00 00 	movl   $0x0,0xffffffdc(%ebp)
  1011b1:	eb 1d                	jmp    1011d0 <exec+0x120>
    arglen += strlen(argv[argc]) + 1;
  1011b3:	8b 45 dc             	mov    0xffffffdc(%ebp),%eax
  1011b6:	c1 e0 02             	shl    $0x2,%eax
  1011b9:	03 45 0c             	add    0xc(%ebp),%eax
  1011bc:	8b 00                	mov    (%eax),%eax
  1011be:	89 04 24             	mov    %eax,(%esp)
  1011c1:	e8 7a 4f 00 00       	call   106140 <strlen>
  1011c6:	83 c0 01             	add    $0x1,%eax
  1011c9:	01 45 e0             	add    %eax,0xffffffe0(%ebp)
  1011cc:	83 45 dc 01          	addl   $0x1,0xffffffdc(%ebp)
  1011d0:	8b 45 dc             	mov    0xffffffdc(%ebp),%eax
  1011d3:	c1 e0 02             	shl    $0x2,%eax
  1011d6:	03 45 0c             	add    0xc(%ebp),%eax
  1011d9:	8b 00                	mov    (%eax),%eax
  1011db:	85 c0                	test   %eax,%eax
  1011dd:	75 d4                	jne    1011b3 <exec+0x103>
  arglen = (arglen+3) & ~3;
  1011df:	8b 45 e0             	mov    0xffffffe0(%ebp),%eax
  1011e2:	83 c0 03             	add    $0x3,%eax
  1011e5:	83 e0 fc             	and    $0xfffffffc,%eax
  1011e8:	89 45 e0             	mov    %eax,0xffffffe0(%ebp)
  sz += arglen + 4*(argc+1);
  1011eb:	8b 45 dc             	mov    0xffffffdc(%ebp),%eax
  1011ee:	83 c0 01             	add    $0x1,%eax
  1011f1:	c1 e0 02             	shl    $0x2,%eax
  1011f4:	03 45 e0             	add    0xffffffe0(%ebp),%eax
  1011f7:	01 45 ec             	add    %eax,0xffffffec(%ebp)

  // Stack.
  sz += PAGE;
  1011fa:	81 45 ec 00 10 00 00 	addl   $0x1000,0xffffffec(%ebp)
  
  // Allocate program memory.
  sz = (sz+PAGE-1) & ~(PAGE-1);
  101201:	8b 45 ec             	mov    0xffffffec(%ebp),%eax
  101204:	05 ff 0f 00 00       	add    $0xfff,%eax
  101209:	25 00 f0 ff ff       	and    $0xfffff000,%eax
  10120e:	89 45 ec             	mov    %eax,0xffffffec(%ebp)
  mem = kalloc(sz);
  101211:	8b 45 ec             	mov    0xffffffec(%ebp),%eax
  101214:	89 04 24             	mov    %eax,(%esp)
  101217:	e8 84 22 00 00       	call   1034a0 <kalloc>
  10121c:	89 45 cc             	mov    %eax,0xffffffcc(%ebp)
  if(mem == 0)
  10121f:	83 7d cc 00          	cmpl   $0x0,0xffffffcc(%ebp)
  101223:	0f 84 d5 02 00 00    	je     1014fe <exec+0x44e>
    goto bad;
  memset(mem, 0, sz);
  101229:	8b 45 ec             	mov    0xffffffec(%ebp),%eax
  10122c:	89 44 24 08          	mov    %eax,0x8(%esp)
  101230:	c7 44 24 04 00 00 00 	movl   $0x0,0x4(%esp)
  101237:	00 
  101238:	8b 45 cc             	mov    0xffffffcc(%ebp),%eax
  10123b:	89 04 24             	mov    %eax,(%esp)
  10123e:	e8 bd 4c 00 00       	call   105f00 <memset>

  // Load program into memory.
  for(i=0, off=elf.phoff; i<elf.phnum; i++, off+=sizeof(ph)){
  101243:	c7 45 d8 00 00 00 00 	movl   $0x0,0xffffffd8(%ebp)
  10124a:	8b 45 b4             	mov    0xffffffb4(%ebp),%eax
  10124d:	89 45 e8             	mov    %eax,0xffffffe8(%ebp)
  101250:	e9 b5 00 00 00       	jmp    10130a <exec+0x25a>
    if(readi(ip, (char*)&ph, off, sizeof(ph)) != sizeof(ph))
  101255:	8b 45 e8             	mov    0xffffffe8(%ebp),%eax
  101258:	8d 95 78 ff ff ff    	lea    0xffffff78(%ebp),%edx
  10125e:	c7 44 24 0c 20 00 00 	movl   $0x20,0xc(%esp)
  101265:	00 
  101266:	89 44 24 08          	mov    %eax,0x8(%esp)
  10126a:	89 54 24 04          	mov    %edx,0x4(%esp)
  10126e:	8b 45 f8             	mov    0xfffffff8(%ebp),%eax
  101271:	89 04 24             	mov    %eax,(%esp)
  101274:	e8 57 12 00 00       	call   1024d0 <readi>
  101279:	83 f8 20             	cmp    $0x20,%eax
  10127c:	0f 85 7c 02 00 00    	jne    1014fe <exec+0x44e>
      goto bad;
    if(ph.type != ELF_PROG_LOAD)
  101282:	8b 85 78 ff ff ff    	mov    0xffffff78(%ebp),%eax
  101288:	83 f8 01             	cmp    $0x1,%eax
  10128b:	75 70                	jne    1012fd <exec+0x24d>
      continue;
    if(ph.va + ph.memsz > sz)
  10128d:	8b 45 80             	mov    0xffffff80(%ebp),%eax
  101290:	8b 55 8c             	mov    0xffffff8c(%ebp),%edx
  101293:	01 d0                	add    %edx,%eax
  101295:	3b 45 ec             	cmp    0xffffffec(%ebp),%eax
  101298:	0f 87 60 02 00 00    	ja     1014fe <exec+0x44e>
      goto bad;
    if(readi(ip, mem + ph.va, ph.offset, ph.filesz) != ph.filesz)
  10129e:	8b 55 88             	mov    0xffffff88(%ebp),%edx
  1012a1:	8b 8d 7c ff ff ff    	mov    0xffffff7c(%ebp),%ecx
  1012a7:	8b 45 80             	mov    0xffffff80(%ebp),%eax
  1012aa:	03 45 cc             	add    0xffffffcc(%ebp),%eax
  1012ad:	89 54 24 0c          	mov    %edx,0xc(%esp)
  1012b1:	89 4c 24 08          	mov    %ecx,0x8(%esp)
  1012b5:	89 44 24 04          	mov    %eax,0x4(%esp)
  1012b9:	8b 45 f8             	mov    0xfffffff8(%ebp),%eax
  1012bc:	89 04 24             	mov    %eax,(%esp)
  1012bf:	e8 0c 12 00 00       	call   1024d0 <readi>
  1012c4:	89 c2                	mov    %eax,%edx
  1012c6:	8b 45 88             	mov    0xffffff88(%ebp),%eax
  1012c9:	39 c2                	cmp    %eax,%edx
  1012cb:	0f 85 2d 02 00 00    	jne    1014fe <exec+0x44e>
      goto bad;
    memset(mem + ph.va + ph.filesz, 0, ph.memsz - ph.filesz);
  1012d1:	8b 55 8c             	mov    0xffffff8c(%ebp),%edx
  1012d4:	8b 45 88             	mov    0xffffff88(%ebp),%eax
  1012d7:	89 d1                	mov    %edx,%ecx
  1012d9:	29 c1                	sub    %eax,%ecx
  1012db:	8b 45 80             	mov    0xffffff80(%ebp),%eax
  1012de:	89 c2                	mov    %eax,%edx
  1012e0:	03 55 cc             	add    0xffffffcc(%ebp),%edx
  1012e3:	8b 45 88             	mov    0xffffff88(%ebp),%eax
  1012e6:	8d 04 02             	lea    (%edx,%eax,1),%eax
  1012e9:	89 4c 24 08          	mov    %ecx,0x8(%esp)
  1012ed:	c7 44 24 04 00 00 00 	movl   $0x0,0x4(%esp)
  1012f4:	00 
  1012f5:	89 04 24             	mov    %eax,(%esp)
  1012f8:	e8 03 4c 00 00       	call   105f00 <memset>
  1012fd:	83 45 d8 01          	addl   $0x1,0xffffffd8(%ebp)
  101301:	8b 45 e8             	mov    0xffffffe8(%ebp),%eax
  101304:	83 c0 20             	add    $0x20,%eax
  101307:	89 45 e8             	mov    %eax,0xffffffe8(%ebp)
  10130a:	0f b7 45 c4          	movzwl 0xffffffc4(%ebp),%eax
  10130e:	0f b7 c0             	movzwl %ax,%eax
  101311:	3b 45 d8             	cmp    0xffffffd8(%ebp),%eax
  101314:	0f 8f 3b ff ff ff    	jg     101255 <exec+0x1a5>
  }
  iunlockput(ip);
  10131a:	8b 45 f8             	mov    0xfffffff8(%ebp),%eax
  10131d:	89 04 24             	mov    %eax,(%esp)
  101320:	e8 4b 0d 00 00       	call   102070 <iunlockput>
  
  // Initialize stack.
  sp = sz;
  101325:	8b 45 ec             	mov    0xffffffec(%ebp),%eax
  101328:	89 45 f0             	mov    %eax,0xfffffff0(%ebp)
  argp = sz - arglen - 4*(argc+1);
  10132b:	8b 55 e0             	mov    0xffffffe0(%ebp),%edx
  10132e:	8b 45 ec             	mov    0xffffffec(%ebp),%eax
  101331:	89 c1                	mov    %eax,%ecx
  101333:	29 d1                	sub    %edx,%ecx
  101335:	89 ca                	mov    %ecx,%edx
  101337:	8b 45 dc             	mov    0xffffffdc(%ebp),%eax
  10133a:	83 c0 01             	add    $0x1,%eax
  10133d:	c1 e0 02             	shl    $0x2,%eax
  101340:	89 d1                	mov    %edx,%ecx
  101342:	29 c1                	sub    %eax,%ecx
  101344:	89 c8                	mov    %ecx,%eax
  101346:	89 45 f4             	mov    %eax,0xfffffff4(%ebp)

  // Copy argv strings and pointers to stack.
  *(uint*)(mem+argp + 4*argc) = 0;  // argv[argc]
  101349:	8b 45 f4             	mov    0xfffffff4(%ebp),%eax
  10134c:	89 c2                	mov    %eax,%edx
  10134e:	03 55 cc             	add    0xffffffcc(%ebp),%edx
  101351:	8b 45 dc             	mov    0xffffffdc(%ebp),%eax
  101354:	c1 e0 02             	shl    $0x2,%eax
  101357:	8d 04 02             	lea    (%edx,%eax,1),%eax
  10135a:	c7 00 00 00 00 00    	movl   $0x0,(%eax)
  for(i=argc-1; i>=0; i--){
  101360:	8b 45 dc             	mov    0xffffffdc(%ebp),%eax
  101363:	83 e8 01             	sub    $0x1,%eax
  101366:	89 45 d8             	mov    %eax,0xffffffd8(%ebp)
  101369:	eb 5f                	jmp    1013ca <exec+0x31a>
    len = strlen(argv[i]) + 1;
  10136b:	8b 45 d8             	mov    0xffffffd8(%ebp),%eax
  10136e:	c1 e0 02             	shl    $0x2,%eax
  101371:	03 45 0c             	add    0xc(%ebp),%eax
  101374:	8b 00                	mov    (%eax),%eax
  101376:	89 04 24             	mov    %eax,(%esp)
  101379:	e8 c2 4d 00 00       	call   106140 <strlen>
  10137e:	83 c0 01             	add    $0x1,%eax
  101381:	89 45 e4             	mov    %eax,0xffffffe4(%ebp)
    sp -= len;
  101384:	8b 45 e4             	mov    0xffffffe4(%ebp),%eax
  101387:	29 45 f0             	sub    %eax,0xfffffff0(%ebp)
    memmove(mem+sp, argv[i], len);
  10138a:	8b 4d e4             	mov    0xffffffe4(%ebp),%ecx
  10138d:	8b 45 d8             	mov    0xffffffd8(%ebp),%eax
  101390:	c1 e0 02             	shl    $0x2,%eax
  101393:	03 45 0c             	add    0xc(%ebp),%eax
  101396:	8b 10                	mov    (%eax),%edx
  101398:	8b 45 f0             	mov    0xfffffff0(%ebp),%eax
  10139b:	03 45 cc             	add    0xffffffcc(%ebp),%eax
  10139e:	89 4c 24 08          	mov    %ecx,0x8(%esp)
  1013a2:	89 54 24 04          	mov    %edx,0x4(%esp)
  1013a6:	89 04 24             	mov    %eax,(%esp)
  1013a9:	e8 e2 4b 00 00       	call   105f90 <memmove>
    *(uint*)(mem+argp + 4*i) = sp;  // argv[i]
  1013ae:	8b 45 f4             	mov    0xfffffff4(%ebp),%eax
  1013b1:	89 c2                	mov    %eax,%edx
  1013b3:	03 55 cc             	add    0xffffffcc(%ebp),%edx
  1013b6:	8b 45 d8             	mov    0xffffffd8(%ebp),%eax
  1013b9:	c1 e0 02             	shl    $0x2,%eax
  1013bc:	8d 04 02             	lea    (%edx,%eax,1),%eax
  1013bf:	89 c2                	mov    %eax,%edx
  1013c1:	8b 45 f0             	mov    0xfffffff0(%ebp),%eax
  1013c4:	89 02                	mov    %eax,(%edx)
  1013c6:	83 6d d8 01          	subl   $0x1,0xffffffd8(%ebp)
  1013ca:	83 7d d8 00          	cmpl   $0x0,0xffffffd8(%ebp)
  1013ce:	79 9b                	jns    10136b <exec+0x2bb>
  }

  // Stack frame for main(argc, argv), below arguments.
  sp = argp;
  1013d0:	8b 45 f4             	mov    0xfffffff4(%ebp),%eax
  1013d3:	89 45 f0             	mov    %eax,0xfffffff0(%ebp)
  sp -= 4;
  1013d6:	83 6d f0 04          	subl   $0x4,0xfffffff0(%ebp)
  *(uint*)(mem+sp) = argp;
  1013da:	8b 45 f0             	mov    0xfffffff0(%ebp),%eax
  1013dd:	03 45 cc             	add    0xffffffcc(%ebp),%eax
  1013e0:	89 c2                	mov    %eax,%edx
  1013e2:	8b 45 f4             	mov    0xfffffff4(%ebp),%eax
  1013e5:	89 02                	mov    %eax,(%edx)
  sp -= 4;
  1013e7:	83 6d f0 04          	subl   $0x4,0xfffffff0(%ebp)
  *(uint*)(mem+sp) = argc;
  1013eb:	8b 45 f0             	mov    0xfffffff0(%ebp),%eax
  1013ee:	03 45 cc             	add    0xffffffcc(%ebp),%eax
  1013f1:	89 c2                	mov    %eax,%edx
  1013f3:	8b 45 dc             	mov    0xffffffdc(%ebp),%eax
  1013f6:	89 02                	mov    %eax,(%edx)
  sp -= 4;
  1013f8:	83 6d f0 04          	subl   $0x4,0xfffffff0(%ebp)
  *(uint*)(mem+sp) = 0xffffffff;   // fake return pc
  1013fc:	8b 45 f0             	mov    0xfffffff0(%ebp),%eax
  1013ff:	03 45 cc             	add    0xffffffcc(%ebp),%eax
  101402:	c7 00 ff ff ff ff    	movl   $0xffffffff,(%eax)

  // Save program name for debugging.
  for(last=s=path; *s; s++)
  101408:	8b 45 08             	mov    0x8(%ebp),%eax
  10140b:	89 45 d0             	mov    %eax,0xffffffd0(%ebp)
  10140e:	8b 45 d0             	mov    0xffffffd0(%ebp),%eax
  101411:	89 45 d4             	mov    %eax,0xffffffd4(%ebp)
  101414:	eb 17                	jmp    10142d <exec+0x37d>
    if(*s == '/')
  101416:	8b 45 d0             	mov    0xffffffd0(%ebp),%eax
  101419:	0f b6 00             	movzbl (%eax),%eax
  10141c:	3c 2f                	cmp    $0x2f,%al
  10141e:	75 09                	jne    101429 <exec+0x379>
      last = s+1;
  101420:	8b 45 d0             	mov    0xffffffd0(%ebp),%eax
  101423:	83 c0 01             	add    $0x1,%eax
  101426:	89 45 d4             	mov    %eax,0xffffffd4(%ebp)
  101429:	83 45 d0 01          	addl   $0x1,0xffffffd0(%ebp)
  10142d:	8b 45 d0             	mov    0xffffffd0(%ebp),%eax
  101430:	0f b6 00             	movzbl (%eax),%eax
  101433:	84 c0                	test   %al,%al
  101435:	75 df                	jne    101416 <exec+0x366>
  safestrcpy(cp->name, last, sizeof(cp->name));
  101437:	e8 84 24 00 00       	call   1038c0 <cpu>
  10143c:	8b 04 85 20 0c 14 00 	mov    0x140c20(,%eax,4),%eax
  101443:	8d 90 88 00 00 00    	lea    0x88(%eax),%edx
  101449:	c7 44 24 08 20 00 00 	movl   $0x20,0x8(%esp)
  101450:	00 
  101451:	8b 45 d4             	mov    0xffffffd4(%ebp),%eax
  101454:	89 44 24 04          	mov    %eax,0x4(%esp)
  101458:	89 14 24             	mov    %edx,(%esp)
  10145b:	e8 80 4c 00 00       	call   1060e0 <safestrcpy>

  // Commit to the new image.
  kfree(cp->mem, cp->sz);
  101460:	e8 5b 24 00 00       	call   1038c0 <cpu>
  101465:	8b 04 85 20 0c 14 00 	mov    0x140c20(,%eax,4),%eax
  10146c:	8b 40 04             	mov    0x4(%eax),%eax
  10146f:	89 c3                	mov    %eax,%ebx
  101471:	e8 4a 24 00 00       	call   1038c0 <cpu>
  101476:	8b 04 85 20 0c 14 00 	mov    0x140c20(,%eax,4),%eax
  10147d:	8b 00                	mov    (%eax),%eax
  10147f:	89 5c 24 04          	mov    %ebx,0x4(%esp)
  101483:	89 04 24             	mov    %eax,(%esp)
  101486:	e8 a5 1e 00 00       	call   103330 <kfree>
  cp->mem = mem;
  10148b:	e8 30 24 00 00       	call   1038c0 <cpu>
  101490:	8b 14 85 20 0c 14 00 	mov    0x140c20(,%eax,4),%edx
  101497:	8b 45 cc             	mov    0xffffffcc(%ebp),%eax
  10149a:	89 02                	mov    %eax,(%edx)
  cp->sz = sz;
  10149c:	e8 1f 24 00 00       	call   1038c0 <cpu>
  1014a1:	8b 14 85 20 0c 14 00 	mov    0x140c20(,%eax,4),%edx
  1014a8:	8b 45 ec             	mov    0xffffffec(%ebp),%eax
  1014ab:	89 42 04             	mov    %eax,0x4(%edx)
  cp->tf->eip = elf.entry;  // main
  1014ae:	e8 0d 24 00 00       	call   1038c0 <cpu>
  1014b3:	8b 04 85 20 0c 14 00 	mov    0x140c20(,%eax,4),%eax
  1014ba:	8b 90 84 00 00 00    	mov    0x84(%eax),%edx
  1014c0:	8b 45 b0             	mov    0xffffffb0(%ebp),%eax
  1014c3:	89 42 30             	mov    %eax,0x30(%edx)
  cp->tf->esp = sp;
  1014c6:	e8 f5 23 00 00       	call   1038c0 <cpu>
  1014cb:	8b 04 85 20 0c 14 00 	mov    0x140c20(,%eax,4),%eax
  1014d2:	8b 90 84 00 00 00    	mov    0x84(%eax),%edx
  1014d8:	8b 45 f0             	mov    0xfffffff0(%ebp),%eax
  1014db:	89 42 3c             	mov    %eax,0x3c(%edx)
  setupsegs(cp);
  1014de:	e8 dd 23 00 00       	call   1038c0 <cpu>
  1014e3:	8b 04 85 20 0c 14 00 	mov    0x140c20(,%eax,4),%eax
  1014ea:	89 04 24             	mov    %eax,(%esp)
  1014ed:	e8 ae 34 00 00       	call   1049a0 <setupsegs>
  return 0;
  1014f2:	c7 85 68 ff ff ff 00 	movl   $0x0,0xffffff68(%ebp)
  1014f9:	00 00 00 
  1014fc:	eb 2d                	jmp    10152b <exec+0x47b>

 bad:
  if(mem)
  1014fe:	83 7d cc 00          	cmpl   $0x0,0xffffffcc(%ebp)
  101502:	74 12                	je     101516 <exec+0x466>
    kfree(mem, sz);
  101504:	8b 45 ec             	mov    0xffffffec(%ebp),%eax
  101507:	89 44 24 04          	mov    %eax,0x4(%esp)
  10150b:	8b 45 cc             	mov    0xffffffcc(%ebp),%eax
  10150e:	89 04 24             	mov    %eax,(%esp)
  101511:	e8 1a 1e 00 00       	call   103330 <kfree>
  iunlockput(ip);
  101516:	8b 45 f8             	mov    0xfffffff8(%ebp),%eax
  101519:	89 04 24             	mov    %eax,(%esp)
  10151c:	e8 4f 0b 00 00       	call   102070 <iunlockput>
  return -1;
  101521:	c7 85 68 ff ff ff ff 	movl   $0xffffffff,0xffffff68(%ebp)
  101528:	ff ff ff 
  10152b:	8b 85 68 ff ff ff    	mov    0xffffff68(%ebp),%eax
}
  101531:	81 c4 a4 00 00 00    	add    $0xa4,%esp
  101537:	5b                   	pop    %ebx
  101538:	5d                   	pop    %ebp
  101539:	c3                   	ret    
  10153a:	90                   	nop    
  10153b:	90                   	nop    
  10153c:	90                   	nop    
  10153d:	90                   	nop    
  10153e:	90                   	nop    
  10153f:	90                   	nop    

00101540 <fileinit>:
struct file file[NFILE];

void
fileinit(void)
{
  101540:	55                   	push   %ebp
  101541:	89 e5                	mov    %esp,%ebp
  101543:	83 ec 08             	sub    $0x8,%esp
  initlock(&file_table_lock, "file_table");
  101546:	c7 44 24 04 7b a3 11 	movl   $0x11a37b,0x4(%esp)
  10154d:	00 
  10154e:	c7 04 24 40 bb 13 00 	movl   $0x13bb40,(%esp)
  101555:	e8 b6 45 00 00       	call   105b10 <initlock>
}
  10155a:	c9                   	leave  
  10155b:	c3                   	ret    
  10155c:	8d 74 26 00          	lea    0x0(%esi),%esi

00101560 <filealloc>:

// Allocate a file structure.
struct file*
filealloc(void)
{
  101560:	55                   	push   %ebp
  101561:	89 e5                	mov    %esp,%ebp
  101563:	83 ec 18             	sub    $0x18,%esp
  int i;

  acquire(&file_table_lock);
  101566:	c7 04 24 40 bb 13 00 	movl   $0x13bb40,(%esp)
  10156d:	e8 ce 45 00 00       	call   105b40 <acquire>
  for(i = 0; i < NFILE; i++){
  101572:	c7 45 fc 00 00 00 00 	movl   $0x0,0xfffffffc(%ebp)
  101579:	eb 68                	jmp    1015e3 <filealloc+0x83>
    if(file[i].type == FD_CLOSED){
  10157b:	8b 55 fc             	mov    0xfffffffc(%ebp),%edx
  10157e:	89 d0                	mov    %edx,%eax
  101580:	01 c0                	add    %eax,%eax
  101582:	01 d0                	add    %edx,%eax
  101584:	c1 e0 03             	shl    $0x3,%eax
  101587:	8b 80 e0 b1 13 00    	mov    0x13b1e0(%eax),%eax
  10158d:	85 c0                	test   %eax,%eax
  10158f:	75 4e                	jne    1015df <filealloc+0x7f>
      file[i].type = FD_NONE;
  101591:	8b 55 fc             	mov    0xfffffffc(%ebp),%edx
  101594:	89 d0                	mov    %edx,%eax
  101596:	01 c0                	add    %eax,%eax
  101598:	01 d0                	add    %edx,%eax
  10159a:	c1 e0 03             	shl    $0x3,%eax
  10159d:	c7 80 e0 b1 13 00 01 	movl   $0x1,0x13b1e0(%eax)
  1015a4:	00 00 00 
      file[i].ref = 1;
  1015a7:	8b 55 fc             	mov    0xfffffffc(%ebp),%edx
  1015aa:	89 d0                	mov    %edx,%eax
  1015ac:	01 c0                	add    %eax,%eax
  1015ae:	01 d0                	add    %edx,%eax
  1015b0:	c1 e0 03             	shl    $0x3,%eax
  1015b3:	c7 80 e4 b1 13 00 01 	movl   $0x1,0x13b1e4(%eax)
  1015ba:	00 00 00 
      release(&file_table_lock);
  1015bd:	c7 04 24 40 bb 13 00 	movl   $0x13bb40,(%esp)
  1015c4:	e8 77 47 00 00       	call   105d40 <release>
      return file + i;
  1015c9:	8b 55 fc             	mov    0xfffffffc(%ebp),%edx
  1015cc:	89 d0                	mov    %edx,%eax
  1015ce:	01 c0                	add    %eax,%eax
  1015d0:	01 d0                	add    %edx,%eax
  1015d2:	c1 e0 03             	shl    $0x3,%eax
  1015d5:	05 e0 b1 13 00       	add    $0x13b1e0,%eax
  1015da:	89 45 ec             	mov    %eax,0xffffffec(%ebp)
  1015dd:	eb 1d                	jmp    1015fc <filealloc+0x9c>
  1015df:	83 45 fc 01          	addl   $0x1,0xfffffffc(%ebp)
  1015e3:	83 7d fc 63          	cmpl   $0x63,0xfffffffc(%ebp)
  1015e7:	7e 92                	jle    10157b <filealloc+0x1b>
    }
  }
  release(&file_table_lock);
  1015e9:	c7 04 24 40 bb 13 00 	movl   $0x13bb40,(%esp)
  1015f0:	e8 4b 47 00 00       	call   105d40 <release>
  return 0;
  1015f5:	c7 45 ec 00 00 00 00 	movl   $0x0,0xffffffec(%ebp)
  1015fc:	8b 45 ec             	mov    0xffffffec(%ebp),%eax
}
  1015ff:	c9                   	leave  
  101600:	c3                   	ret    
  101601:	eb 0d                	jmp    101610 <filedup>
  101603:	90                   	nop    
  101604:	90                   	nop    
  101605:	90                   	nop    
  101606:	90                   	nop    
  101607:	90                   	nop    
  101608:	90                   	nop    
  101609:	90                   	nop    
  10160a:	90                   	nop    
  10160b:	90                   	nop    
  10160c:	90                   	nop    
  10160d:	90                   	nop    
  10160e:	90                   	nop    
  10160f:	90                   	nop    

00101610 <filedup>:

// Increment ref count for file f.
struct file*
filedup(struct file *f)
{
  101610:	55                   	push   %ebp
  101611:	89 e5                	mov    %esp,%ebp
  101613:	83 ec 08             	sub    $0x8,%esp
  acquire(&file_table_lock);
  101616:	c7 04 24 40 bb 13 00 	movl   $0x13bb40,(%esp)
  10161d:	e8 1e 45 00 00       	call   105b40 <acquire>
  if(f->ref < 1 || f->type == FD_CLOSED)
  101622:	8b 45 08             	mov    0x8(%ebp),%eax
  101625:	8b 40 04             	mov    0x4(%eax),%eax
  101628:	85 c0                	test   %eax,%eax
  10162a:	7e 09                	jle    101635 <filedup+0x25>
  10162c:	8b 45 08             	mov    0x8(%ebp),%eax
  10162f:	8b 00                	mov    (%eax),%eax
  101631:	85 c0                	test   %eax,%eax
  101633:	75 0c                	jne    101641 <filedup+0x31>
    panic("filedup");
  101635:	c7 04 24 86 a3 11 00 	movl   $0x11a386,(%esp)
  10163c:	e8 cf f9 ff ff       	call   101010 <panic>
  f->ref++;
  101641:	8b 45 08             	mov    0x8(%ebp),%eax
  101644:	8b 40 04             	mov    0x4(%eax),%eax
  101647:	8d 50 01             	lea    0x1(%eax),%edx
  10164a:	8b 45 08             	mov    0x8(%ebp),%eax
  10164d:	89 50 04             	mov    %edx,0x4(%eax)
  release(&file_table_lock);
  101650:	c7 04 24 40 bb 13 00 	movl   $0x13bb40,(%esp)
  101657:	e8 e4 46 00 00       	call   105d40 <release>
  return f;
  10165c:	8b 45 08             	mov    0x8(%ebp),%eax
}
  10165f:	c9                   	leave  
  101660:	c3                   	ret    
  101661:	eb 0d                	jmp    101670 <fileclose>
  101663:	90                   	nop    
  101664:	90                   	nop    
  101665:	90                   	nop    
  101666:	90                   	nop    
  101667:	90                   	nop    
  101668:	90                   	nop    
  101669:	90                   	nop    
  10166a:	90                   	nop    
  10166b:	90                   	nop    
  10166c:	90                   	nop    
  10166d:	90                   	nop    
  10166e:	90                   	nop    
  10166f:	90                   	nop    

00101670 <fileclose>:

// Close file f.  (Decrement ref count, close when reaches 0.)
void
fileclose(struct file *f)
{
  101670:	55                   	push   %ebp
  101671:	89 e5                	mov    %esp,%ebp
  101673:	83 ec 38             	sub    $0x38,%esp
  struct file ff;

  acquire(&file_table_lock);
  101676:	c7 04 24 40 bb 13 00 	movl   $0x13bb40,(%esp)
  10167d:	e8 be 44 00 00       	call   105b40 <acquire>
  if(f->ref < 1 || f->type == FD_CLOSED)
  101682:	8b 45 08             	mov    0x8(%ebp),%eax
  101685:	8b 40 04             	mov    0x4(%eax),%eax
  101688:	85 c0                	test   %eax,%eax
  10168a:	7e 09                	jle    101695 <fileclose+0x25>
  10168c:	8b 45 08             	mov    0x8(%ebp),%eax
  10168f:	8b 00                	mov    (%eax),%eax
  101691:	85 c0                	test   %eax,%eax
  101693:	75 2b                	jne    1016c0 <fileclose+0x50>
  {
      cprintf("ref: %d type: %d\n", f->ref, f->type);
  101695:	8b 45 08             	mov    0x8(%ebp),%eax
  101698:	8b 10                	mov    (%eax),%edx
  10169a:	8b 45 08             	mov    0x8(%ebp),%eax
  10169d:	8b 40 04             	mov    0x4(%eax),%eax
  1016a0:	89 54 24 08          	mov    %edx,0x8(%esp)
  1016a4:	89 44 24 04          	mov    %eax,0x4(%esp)
  1016a8:	c7 04 24 8e a3 11 00 	movl   $0x11a38e,(%esp)
  1016af:	e8 5c f0 ff ff       	call   100710 <cprintf>
      panic("fileclose: file closed");
  1016b4:	c7 04 24 a0 a3 11 00 	movl   $0x11a3a0,(%esp)
  1016bb:	e8 50 f9 ff ff       	call   101010 <panic>
  }
  if(--f->ref > 0){
  1016c0:	8b 45 08             	mov    0x8(%ebp),%eax
  1016c3:	8b 40 04             	mov    0x4(%eax),%eax
  1016c6:	8d 50 ff             	lea    0xffffffff(%eax),%edx
  1016c9:	8b 45 08             	mov    0x8(%ebp),%eax
  1016cc:	89 50 04             	mov    %edx,0x4(%eax)
  1016cf:	8b 45 08             	mov    0x8(%ebp),%eax
  1016d2:	8b 40 04             	mov    0x4(%eax),%eax
  1016d5:	85 c0                	test   %eax,%eax
  1016d7:	7e 11                	jle    1016ea <fileclose+0x7a>
    release(&file_table_lock);
  1016d9:	c7 04 24 40 bb 13 00 	movl   $0x13bb40,(%esp)
  1016e0:	e8 5b 46 00 00       	call   105d40 <release>
    return;
  1016e5:	e9 9a 00 00 00       	jmp    101784 <fileclose+0x114>
  }
  ff = *f;
  1016ea:	8b 55 08             	mov    0x8(%ebp),%edx
  1016ed:	8b 02                	mov    (%edx),%eax
  1016ef:	89 45 e8             	mov    %eax,0xffffffe8(%ebp)
  1016f2:	8b 42 04             	mov    0x4(%edx),%eax
  1016f5:	89 45 ec             	mov    %eax,0xffffffec(%ebp)
  1016f8:	8b 42 08             	mov    0x8(%edx),%eax
  1016fb:	89 45 f0             	mov    %eax,0xfffffff0(%ebp)
  1016fe:	8b 42 0c             	mov    0xc(%edx),%eax
  101701:	89 45 f4             	mov    %eax,0xfffffff4(%ebp)
  101704:	8b 42 10             	mov    0x10(%edx),%eax
  101707:	89 45 f8             	mov    %eax,0xfffffff8(%ebp)
  10170a:	8b 42 14             	mov    0x14(%edx),%eax
  10170d:	89 45 fc             	mov    %eax,0xfffffffc(%ebp)
  f->ref = 0;
  101710:	8b 45 08             	mov    0x8(%ebp),%eax
  101713:	c7 40 04 00 00 00 00 	movl   $0x0,0x4(%eax)
  f->type = FD_CLOSED;
  10171a:	8b 45 08             	mov    0x8(%ebp),%eax
  10171d:	c7 00 00 00 00 00    	movl   $0x0,(%eax)
  release(&file_table_lock);
  101723:	c7 04 24 40 bb 13 00 	movl   $0x13bb40,(%esp)
  10172a:	e8 11 46 00 00       	call   105d40 <release>
  
  if(ff.type == FD_PIPE)
  10172f:	8b 45 e8             	mov    0xffffffe8(%ebp),%eax
  101732:	83 f8 02             	cmp    $0x2,%eax
  101735:	75 18                	jne    10174f <fileclose+0xdf>
    pipeclose(ff.pipe, ff.writable);
  101737:	0f b6 45 f1          	movzbl 0xfffffff1(%ebp),%eax
  10173b:	0f be c0             	movsbl %al,%eax
  10173e:	8b 55 f4             	mov    0xfffffff4(%ebp),%edx
  101741:	89 44 24 04          	mov    %eax,0x4(%esp)
  101745:	89 14 24             	mov    %edx,(%esp)
  101748:	e8 d3 2d 00 00       	call   104520 <pipeclose>
  10174d:	eb 35                	jmp    101784 <fileclose+0x114>
  else if(ff.type == FD_INODE)
  10174f:	8b 45 e8             	mov    0xffffffe8(%ebp),%eax
  101752:	83 f8 03             	cmp    $0x3,%eax
  101755:	75 0d                	jne    101764 <fileclose+0xf4>
    iput(ff.ip);
  101757:	8b 45 f8             	mov    0xfffffff8(%ebp),%eax
  10175a:	89 04 24             	mov    %eax,(%esp)
  10175d:	e8 2e 08 00 00       	call   101f90 <iput>
  101762:	eb 20                	jmp    101784 <fileclose+0x114>
  else if(ff.type == FD_NONE)
  101764:	8b 45 e8             	mov    0xffffffe8(%ebp),%eax
  101767:	83 f8 01             	cmp    $0x1,%eax
  10176a:	74 18                	je     101784 <fileclose+0x114>
  {
      // Nothing to do: fd alloc failure
      // Do not need to panic
      //    just because too many files
      //    opened!
  }
  else
  {
      cprintf("type: %d\n");
  10176c:	c7 04 24 b7 a3 11 00 	movl   $0x11a3b7,(%esp)
  101773:	e8 98 ef ff ff       	call   100710 <cprintf>
      panic("fileclose: file type error");
  101778:	c7 04 24 c1 a3 11 00 	movl   $0x11a3c1,(%esp)
  10177f:	e8 8c f8 ff ff       	call   101010 <panic>
  }
}
  101784:	c9                   	leave  
  101785:	c3                   	ret    
  101786:	8d 76 00             	lea    0x0(%esi),%esi
  101789:	8d bc 27 00 00 00 00 	lea    0x0(%edi),%edi

00101790 <filestat>:

// Get metadata about file f.
int
filestat(struct file *f, struct stat *st)
{
  101790:	55                   	push   %ebp
  101791:	89 e5                	mov    %esp,%ebp
  101793:	83 ec 18             	sub    $0x18,%esp
  if(f->type == FD_INODE){
  101796:	8b 45 08             	mov    0x8(%ebp),%eax
  101799:	8b 00                	mov    (%eax),%eax
  10179b:	83 f8 03             	cmp    $0x3,%eax
  10179e:	75 3a                	jne    1017da <filestat+0x4a>
    ilock(f->ip);
  1017a0:	8b 45 08             	mov    0x8(%ebp),%eax
  1017a3:	8b 40 10             	mov    0x10(%eax),%eax
  1017a6:	89 04 24             	mov    %eax,(%esp)
  1017a9:	e8 12 06 00 00       	call   101dc0 <ilock>
    stati(f->ip, st);
  1017ae:	8b 45 08             	mov    0x8(%ebp),%eax
  1017b1:	8b 50 10             	mov    0x10(%eax),%edx
  1017b4:	8b 45 0c             	mov    0xc(%ebp),%eax
  1017b7:	89 44 24 04          	mov    %eax,0x4(%esp)
  1017bb:	89 14 24             	mov    %edx,(%esp)
  1017be:	e8 bd 0c 00 00       	call   102480 <stati>
    iunlock(f->ip);
  1017c3:	8b 45 08             	mov    0x8(%ebp),%eax
  1017c6:	8b 40 10             	mov    0x10(%eax),%eax
  1017c9:	89 04 24             	mov    %eax,(%esp)
  1017cc:	e8 4f 07 00 00       	call   101f20 <iunlock>
    return 0;
  1017d1:	c7 45 fc 00 00 00 00 	movl   $0x0,0xfffffffc(%ebp)
  1017d8:	eb 07                	jmp    1017e1 <filestat+0x51>
  }
  return -1;
  1017da:	c7 45 fc ff ff ff ff 	movl   $0xffffffff,0xfffffffc(%ebp)
  1017e1:	8b 45 fc             	mov    0xfffffffc(%ebp),%eax
}
  1017e4:	c9                   	leave  
  1017e5:	c3                   	ret    
  1017e6:	8d 76 00             	lea    0x0(%esi),%esi
  1017e9:	8d bc 27 00 00 00 00 	lea    0x0(%edi),%edi

001017f0 <fileread>:

// Read from file f.  Addr is kernel address.
int
fileread(struct file *f, char *addr, int n)
{
  1017f0:	55                   	push   %ebp
  1017f1:	89 e5                	mov    %esp,%ebp
  1017f3:	53                   	push   %ebx
  1017f4:	83 ec 24             	sub    $0x24,%esp
  int r;

  if(f->readable == 0)
  1017f7:	8b 45 08             	mov    0x8(%ebp),%eax
  1017fa:	0f b6 40 08          	movzbl 0x8(%eax),%eax
  1017fe:	84 c0                	test   %al,%al
  101800:	75 0c                	jne    10180e <fileread+0x1e>
    return -1;
  101802:	c7 45 e8 ff ff ff ff 	movl   $0xffffffff,0xffffffe8(%ebp)
  101809:	e9 a5 00 00 00       	jmp    1018b3 <fileread+0xc3>
  if(f->type == FD_PIPE)
  10180e:	8b 45 08             	mov    0x8(%ebp),%eax
  101811:	8b 00                	mov    (%eax),%eax
  101813:	83 f8 02             	cmp    $0x2,%eax
  101816:	75 21                	jne    101839 <fileread+0x49>
    return piperead(f->pipe, addr, n);
  101818:	8b 45 08             	mov    0x8(%ebp),%eax
  10181b:	8b 50 0c             	mov    0xc(%eax),%edx
  10181e:	8b 45 10             	mov    0x10(%ebp),%eax
  101821:	89 44 24 08          	mov    %eax,0x8(%esp)
  101825:	8b 45 0c             	mov    0xc(%ebp),%eax
  101828:	89 44 24 04          	mov    %eax,0x4(%esp)
  10182c:	89 14 24             	mov    %edx,(%esp)
  10182f:	e8 9c 2e 00 00       	call   1046d0 <piperead>
  101834:	89 45 e8             	mov    %eax,0xffffffe8(%ebp)
  101837:	eb 7a                	jmp    1018b3 <fileread+0xc3>
  if(f->type == FD_INODE){
  101839:	8b 45 08             	mov    0x8(%ebp),%eax
  10183c:	8b 00                	mov    (%eax),%eax
  10183e:	83 f8 03             	cmp    $0x3,%eax
  101841:	75 64                	jne    1018a7 <fileread+0xb7>
    ilock(f->ip);
  101843:	8b 45 08             	mov    0x8(%ebp),%eax
  101846:	8b 40 10             	mov    0x10(%eax),%eax
  101849:	89 04 24             	mov    %eax,(%esp)
  10184c:	e8 6f 05 00 00       	call   101dc0 <ilock>
    if((r = readi(f->ip, addr, f->off, n)) > 0)
  101851:	8b 55 10             	mov    0x10(%ebp),%edx
  101854:	8b 45 08             	mov    0x8(%ebp),%eax
  101857:	8b 48 14             	mov    0x14(%eax),%ecx
  10185a:	8b 45 08             	mov    0x8(%ebp),%eax
  10185d:	8b 58 10             	mov    0x10(%eax),%ebx
  101860:	89 54 24 0c          	mov    %edx,0xc(%esp)
  101864:	89 4c 24 08          	mov    %ecx,0x8(%esp)
  101868:	8b 45 0c             	mov    0xc(%ebp),%eax
  10186b:	89 44 24 04          	mov    %eax,0x4(%esp)
  10186f:	89 1c 24             	mov    %ebx,(%esp)
  101872:	e8 59 0c 00 00       	call   1024d0 <readi>
  101877:	89 45 f8             	mov    %eax,0xfffffff8(%ebp)
  10187a:	83 7d f8 00          	cmpl   $0x0,0xfffffff8(%ebp)
  10187e:	7e 11                	jle    101891 <fileread+0xa1>
      f->off += r;
  101880:	8b 45 08             	mov    0x8(%ebp),%eax
  101883:	8b 50 14             	mov    0x14(%eax),%edx
  101886:	8b 45 f8             	mov    0xfffffff8(%ebp),%eax
  101889:	01 c2                	add    %eax,%edx
  10188b:	8b 45 08             	mov    0x8(%ebp),%eax
  10188e:	89 50 14             	mov    %edx,0x14(%eax)
    iunlock(f->ip);
  101891:	8b 45 08             	mov    0x8(%ebp),%eax
  101894:	8b 40 10             	mov    0x10(%eax),%eax
  101897:	89 04 24             	mov    %eax,(%esp)
  10189a:	e8 81 06 00 00       	call   101f20 <iunlock>
    return r;
  10189f:	8b 45 f8             	mov    0xfffffff8(%ebp),%eax
  1018a2:	89 45 e8             	mov    %eax,0xffffffe8(%ebp)
  1018a5:	eb 0c                	jmp    1018b3 <fileread+0xc3>
  }
  panic("fileread");
  1018a7:	c7 04 24 dc a3 11 00 	movl   $0x11a3dc,(%esp)
  1018ae:	e8 5d f7 ff ff       	call   101010 <panic>
  1018b3:	8b 45 e8             	mov    0xffffffe8(%ebp),%eax
}
  1018b6:	83 c4 24             	add    $0x24,%esp
  1018b9:	5b                   	pop    %ebx
  1018ba:	5d                   	pop    %ebp
  1018bb:	c3                   	ret    
  1018bc:	8d 74 26 00          	lea    0x0(%esi),%esi

001018c0 <filewrite>:

// Write to file f.  Addr is kernel address.
int
filewrite(struct file *f, char *addr, int n)
{
  1018c0:	55                   	push   %ebp
  1018c1:	89 e5                	mov    %esp,%ebp
  1018c3:	53                   	push   %ebx
  1018c4:	83 ec 24             	sub    $0x24,%esp
  int r;

  if(f->writable == 0)
  1018c7:	8b 45 08             	mov    0x8(%ebp),%eax
  1018ca:	0f b6 40 09          	movzbl 0x9(%eax),%eax
  1018ce:	84 c0                	test   %al,%al
  1018d0:	75 0c                	jne    1018de <filewrite+0x1e>
    return -1;
  1018d2:	c7 45 e8 ff ff ff ff 	movl   $0xffffffff,0xffffffe8(%ebp)
  1018d9:	e9 a5 00 00 00       	jmp    101983 <filewrite+0xc3>
  if(f->type == FD_PIPE)
  1018de:	8b 45 08             	mov    0x8(%ebp),%eax
  1018e1:	8b 00                	mov    (%eax),%eax
  1018e3:	83 f8 02             	cmp    $0x2,%eax
  1018e6:	75 21                	jne    101909 <filewrite+0x49>
    return pipewrite(f->pipe, addr, n);
  1018e8:	8b 45 08             	mov    0x8(%ebp),%eax
  1018eb:	8b 50 0c             	mov    0xc(%eax),%edx
  1018ee:	8b 45 10             	mov    0x10(%ebp),%eax
  1018f1:	89 44 24 08          	mov    %eax,0x8(%esp)
  1018f5:	8b 45 0c             	mov    0xc(%ebp),%eax
  1018f8:	89 44 24 04          	mov    %eax,0x4(%esp)
  1018fc:	89 14 24             	mov    %edx,(%esp)
  1018ff:	e8 ac 2c 00 00       	call   1045b0 <pipewrite>
  101904:	89 45 e8             	mov    %eax,0xffffffe8(%ebp)
  101907:	eb 7a                	jmp    101983 <filewrite+0xc3>
  if(f->type == FD_INODE){
  101909:	8b 45 08             	mov    0x8(%ebp),%eax
  10190c:	8b 00                	mov    (%eax),%eax
  10190e:	83 f8 03             	cmp    $0x3,%eax
  101911:	75 64                	jne    101977 <filewrite+0xb7>
    ilock(f->ip);
  101913:	8b 45 08             	mov    0x8(%ebp),%eax
  101916:	8b 40 10             	mov    0x10(%eax),%eax
  101919:	89 04 24             	mov    %eax,(%esp)
  10191c:	e8 9f 04 00 00       	call   101dc0 <ilock>
    if((r = writei(f->ip, addr, f->off, n)) > 0)
  101921:	8b 55 10             	mov    0x10(%ebp),%edx
  101924:	8b 45 08             	mov    0x8(%ebp),%eax
  101927:	8b 48 14             	mov    0x14(%eax),%ecx
  10192a:	8b 45 08             	mov    0x8(%ebp),%eax
  10192d:	8b 58 10             	mov    0x10(%eax),%ebx
  101930:	89 54 24 0c          	mov    %edx,0xc(%esp)
  101934:	89 4c 24 08          	mov    %ecx,0x8(%esp)
  101938:	8b 45 0c             	mov    0xc(%ebp),%eax
  10193b:	89 44 24 04          	mov    %eax,0x4(%esp)
  10193f:	89 1c 24             	mov    %ebx,(%esp)
  101942:	e8 19 0d 00 00       	call   102660 <writei>
  101947:	89 45 f8             	mov    %eax,0xfffffff8(%ebp)
  10194a:	83 7d f8 00          	cmpl   $0x0,0xfffffff8(%ebp)
  10194e:	7e 11                	jle    101961 <filewrite+0xa1>
      f->off += r;
  101950:	8b 45 08             	mov    0x8(%ebp),%eax
  101953:	8b 50 14             	mov    0x14(%eax),%edx
  101956:	8b 45 f8             	mov    0xfffffff8(%ebp),%eax
  101959:	01 c2                	add    %eax,%edx
  10195b:	8b 45 08             	mov    0x8(%ebp),%eax
  10195e:	89 50 14             	mov    %edx,0x14(%eax)
    iunlock(f->ip);
  101961:	8b 45 08             	mov    0x8(%ebp),%eax
  101964:	8b 40 10             	mov    0x10(%eax),%eax
  101967:	89 04 24             	mov    %eax,(%esp)
  10196a:	e8 b1 05 00 00       	call   101f20 <iunlock>
    return r;
  10196f:	8b 45 f8             	mov    0xfffffff8(%ebp),%eax
  101972:	89 45 e8             	mov    %eax,0xffffffe8(%ebp)
  101975:	eb 0c                	jmp    101983 <filewrite+0xc3>
  }
  panic("filewrite");
  101977:	c7 04 24 e5 a3 11 00 	movl   $0x11a3e5,(%esp)
  10197e:	e8 8d f6 ff ff       	call   101010 <panic>
  101983:	8b 45 e8             	mov    0xffffffe8(%ebp),%eax
}
  101986:	83 c4 24             	add    $0x24,%esp
  101989:	5b                   	pop    %ebx
  10198a:	5d                   	pop    %ebp
  10198b:	c3                   	ret    
  10198c:	90                   	nop    
  10198d:	90                   	nop    
  10198e:	90                   	nop    
  10198f:	90                   	nop    

00101990 <readsb>:

// Read the super block.
static void
readsb(int dev, struct superblock *sb)
{
  101990:	55                   	push   %ebp
  101991:	89 e5                	mov    %esp,%ebp
  101993:	83 ec 28             	sub    $0x28,%esp
  struct buf *bp;
  
//  cprintf("XXX %s\n",__func__);
  bp = bread(dev, 1);
  101996:	8b 45 08             	mov    0x8(%ebp),%eax
  101999:	c7 44 24 04 01 00 00 	movl   $0x1,0x4(%esp)
  1019a0:	00 
  1019a1:	89 04 24             	mov    %eax,(%esp)
  1019a4:	e8 d7 e7 ff ff       	call   100180 <bread>
  1019a9:	89 45 fc             	mov    %eax,0xfffffffc(%ebp)
  memmove(sb, bp->data, sizeof(*sb));
  1019ac:	8b 45 fc             	mov    0xfffffffc(%ebp),%eax
  1019af:	83 c0 18             	add    $0x18,%eax
  1019b2:	c7 44 24 08 0c 00 00 	movl   $0xc,0x8(%esp)
  1019b9:	00 
  1019ba:	89 44 24 04          	mov    %eax,0x4(%esp)
  1019be:	8b 45 0c             	mov    0xc(%ebp),%eax
  1019c1:	89 04 24             	mov    %eax,(%esp)
  1019c4:	e8 c7 45 00 00       	call   105f90 <memmove>
  brelse(bp);
  1019c9:	8b 45 fc             	mov    0xfffffffc(%ebp),%eax
  1019cc:	89 04 24             	mov    %eax,(%esp)
  1019cf:	e8 2c e8 ff ff       	call   100200 <brelse>
}
  1019d4:	c9                   	leave  
  1019d5:	c3                   	ret    
  1019d6:	8d 76 00             	lea    0x0(%esi),%esi
  1019d9:	8d bc 27 00 00 00 00 	lea    0x0(%edi),%edi

001019e0 <bzero>:

// Zero a block.
static void
bzero(int dev, int bno)
{
  1019e0:	55                   	push   %ebp
  1019e1:	89 e5                	mov    %esp,%ebp
  1019e3:	83 ec 28             	sub    $0x28,%esp
  struct buf *bp;
  
//  cprintf("XXX %s\n",__func__);
  bp = bread(dev, bno);
  1019e6:	8b 45 0c             	mov    0xc(%ebp),%eax
  1019e9:	8b 55 08             	mov    0x8(%ebp),%edx
  1019ec:	89 44 24 04          	mov    %eax,0x4(%esp)
  1019f0:	89 14 24             	mov    %edx,(%esp)
  1019f3:	e8 88 e7 ff ff       	call   100180 <bread>
  1019f8:	89 45 fc             	mov    %eax,0xfffffffc(%ebp)
  memset(bp->data, 0, BSIZE);
  1019fb:	8b 45 fc             	mov    0xfffffffc(%ebp),%eax
  1019fe:	83 c0 18             	add    $0x18,%eax
  101a01:	c7 44 24 08 00 02 00 	movl   $0x200,0x8(%esp)
  101a08:	00 
  101a09:	c7 44 24 04 00 00 00 	movl   $0x0,0x4(%esp)
  101a10:	00 
  101a11:	89 04 24             	mov    %eax,(%esp)
  101a14:	e8 e7 44 00 00       	call   105f00 <memset>
  bwrite(bp);
  101a19:	8b 45 fc             	mov    0xfffffffc(%ebp),%eax
  101a1c:	89 04 24             	mov    %eax,(%esp)
  101a1f:	e8 9c e7 ff ff       	call   1001c0 <bwrite>
  brelse(bp);
  101a24:	8b 45 fc             	mov    0xfffffffc(%ebp),%eax
  101a27:	89 04 24             	mov    %eax,(%esp)
  101a2a:	e8 d1 e7 ff ff       	call   100200 <brelse>
}
  101a2f:	c9                   	leave  
  101a30:	c3                   	ret    
  101a31:	eb 0d                	jmp    101a40 <balloc>
  101a33:	90                   	nop    
  101a34:	90                   	nop    
  101a35:	90                   	nop    
  101a36:	90                   	nop    
  101a37:	90                   	nop    
  101a38:	90                   	nop    
  101a39:	90                   	nop    
  101a3a:	90                   	nop    
  101a3b:	90                   	nop    
  101a3c:	90                   	nop    
  101a3d:	90                   	nop    
  101a3e:	90                   	nop    
  101a3f:	90                   	nop    

00101a40 <balloc>:

// Blocks. 

// Allocate a disk block.
static uint
balloc(uint dev)
{
  101a40:	55                   	push   %ebp
  101a41:	89 e5                	mov    %esp,%ebp
  101a43:	83 ec 38             	sub    $0x38,%esp
  int b, bi, m;
  struct buf *bp;
  struct superblock sb;

//  cprintf("XXX %s\n",__func__);
  bp = 0;
  101a46:	c7 45 fc 00 00 00 00 	movl   $0x0,0xfffffffc(%ebp)
  readsb(dev, &sb);
  101a4d:	8b 55 08             	mov    0x8(%ebp),%edx
  101a50:	8d 45 e4             	lea    0xffffffe4(%ebp),%eax
  101a53:	89 44 24 04          	mov    %eax,0x4(%esp)
  101a57:	89 14 24             	mov    %edx,(%esp)
  101a5a:	e8 31 ff ff ff       	call   101990 <readsb>
  for(b = 0; b < sb.size; b += BPB){
  101a5f:	c7 45 f0 00 00 00 00 	movl   $0x0,0xfffffff0(%ebp)
  101a66:	e9 f1 00 00 00       	jmp    101b5c <balloc+0x11c>
    bp = bread(dev, BBLOCK(b, sb.ninodes));
  101a6b:	8b 55 f0             	mov    0xfffffff0(%ebp),%edx
  101a6e:	89 d0                	mov    %edx,%eax
  101a70:	c1 f8 1f             	sar    $0x1f,%eax
  101a73:	c1 e8 14             	shr    $0x14,%eax
  101a76:	01 d0                	add    %edx,%eax
  101a78:	c1 f8 0c             	sar    $0xc,%eax
  101a7b:	89 c2                	mov    %eax,%edx
  101a7d:	8b 45 ec             	mov    0xffffffec(%ebp),%eax
  101a80:	c1 e8 03             	shr    $0x3,%eax
  101a83:	8d 04 02             	lea    (%edx,%eax,1),%eax
  101a86:	83 c0 03             	add    $0x3,%eax
  101a89:	89 44 24 04          	mov    %eax,0x4(%esp)
  101a8d:	8b 45 08             	mov    0x8(%ebp),%eax
  101a90:	89 04 24             	mov    %eax,(%esp)
  101a93:	e8 e8 e6 ff ff       	call   100180 <bread>
  101a98:	89 45 fc             	mov    %eax,0xfffffffc(%ebp)
    for(bi = 0; bi < BPB; bi++){
  101a9b:	c7 45 f4 00 00 00 00 	movl   $0x0,0xfffffff4(%ebp)
  101aa2:	e9 96 00 00 00       	jmp    101b3d <balloc+0xfd>
      m = 1 << (bi % 8);
  101aa7:	8b 55 f4             	mov    0xfffffff4(%ebp),%edx
  101aaa:	89 d0                	mov    %edx,%eax
  101aac:	c1 f8 1f             	sar    $0x1f,%eax
  101aaf:	89 c1                	mov    %eax,%ecx
  101ab1:	c1 e9 1d             	shr    $0x1d,%ecx
  101ab4:	8d 04 0a             	lea    (%edx,%ecx,1),%eax
  101ab7:	83 e0 07             	and    $0x7,%eax
  101aba:	29 c8                	sub    %ecx,%eax
  101abc:	89 c1                	mov    %eax,%ecx
  101abe:	b8 01 00 00 00       	mov    $0x1,%eax
  101ac3:	d3 e0                	shl    %cl,%eax
  101ac5:	89 45 f8             	mov    %eax,0xfffffff8(%ebp)
      if((bp->data[bi/8] & m) == 0){  // Is block free?
  101ac8:	8b 55 f4             	mov    0xfffffff4(%ebp),%edx
  101acb:	89 d0                	mov    %edx,%eax
  101acd:	c1 f8 1f             	sar    $0x1f,%eax
  101ad0:	c1 e8 1d             	shr    $0x1d,%eax
  101ad3:	01 d0                	add    %edx,%eax
  101ad5:	c1 f8 03             	sar    $0x3,%eax
  101ad8:	89 c2                	mov    %eax,%edx
  101ada:	8b 45 fc             	mov    0xfffffffc(%ebp),%eax
  101add:	0f b6 44 02 18       	movzbl 0x18(%edx,%eax,1),%eax
  101ae2:	0f b6 c0             	movzbl %al,%eax
  101ae5:	23 45 f8             	and    0xfffffff8(%ebp),%eax
  101ae8:	85 c0                	test   %eax,%eax
  101aea:	75 4d                	jne    101b39 <balloc+0xf9>
        bp->data[bi/8] |= m;  // Mark block in use on disk.
  101aec:	8b 55 f4             	mov    0xfffffff4(%ebp),%edx
  101aef:	89 d0                	mov    %edx,%eax
  101af1:	c1 f8 1f             	sar    $0x1f,%eax
  101af4:	c1 e8 1d             	shr    $0x1d,%eax
  101af7:	01 d0                	add    %edx,%eax
  101af9:	c1 f8 03             	sar    $0x3,%eax
  101afc:	89 c1                	mov    %eax,%ecx
  101afe:	89 c2                	mov    %eax,%edx
  101b00:	8b 45 fc             	mov    0xfffffffc(%ebp),%eax
  101b03:	0f b6 44 02 18       	movzbl 0x18(%edx,%eax,1),%eax
  101b08:	89 c2                	mov    %eax,%edx
  101b0a:	8b 45 f8             	mov    0xfffffff8(%ebp),%eax
  101b0d:	09 d0                	or     %edx,%eax
  101b0f:	89 c2                	mov    %eax,%edx
  101b11:	8b 45 fc             	mov    0xfffffffc(%ebp),%eax
  101b14:	88 54 01 18          	mov    %dl,0x18(%ecx,%eax,1)
        bwrite(bp);
  101b18:	8b 45 fc             	mov    0xfffffffc(%ebp),%eax
  101b1b:	89 04 24             	mov    %eax,(%esp)
  101b1e:	e8 9d e6 ff ff       	call   1001c0 <bwrite>
        brelse(bp);
  101b23:	8b 45 fc             	mov    0xfffffffc(%ebp),%eax
  101b26:	89 04 24             	mov    %eax,(%esp)
  101b29:	e8 d2 e6 ff ff       	call   100200 <brelse>
        return b + bi;
  101b2e:	8b 45 f4             	mov    0xfffffff4(%ebp),%eax
  101b31:	03 45 f0             	add    0xfffffff0(%ebp),%eax
  101b34:	89 45 dc             	mov    %eax,0xffffffdc(%ebp)
  101b37:	eb 3d                	jmp    101b76 <balloc+0x136>
  101b39:	83 45 f4 01          	addl   $0x1,0xfffffff4(%ebp)
  101b3d:	81 7d f4 ff 0f 00 00 	cmpl   $0xfff,0xfffffff4(%ebp)
  101b44:	0f 8e 5d ff ff ff    	jle    101aa7 <balloc+0x67>
      }
    }
    brelse(bp);
  101b4a:	8b 45 fc             	mov    0xfffffffc(%ebp),%eax
  101b4d:	89 04 24             	mov    %eax,(%esp)
  101b50:	e8 ab e6 ff ff       	call   100200 <brelse>
  101b55:	81 45 f0 00 10 00 00 	addl   $0x1000,0xfffffff0(%ebp)
  101b5c:	8b 55 f0             	mov    0xfffffff0(%ebp),%edx
  101b5f:	8b 45 e4             	mov    0xffffffe4(%ebp),%eax
  101b62:	39 c2                	cmp    %eax,%edx
  101b64:	0f 82 01 ff ff ff    	jb     101a6b <balloc+0x2b>
  }
  panic("balloc: out of blocks");
  101b6a:	c7 04 24 ef a3 11 00 	movl   $0x11a3ef,(%esp)
  101b71:	e8 9a f4 ff ff       	call   101010 <panic>
}
  101b76:	8b 45 dc             	mov    0xffffffdc(%ebp),%eax
  101b79:	c9                   	leave  
  101b7a:	c3                   	ret    
  101b7b:	90                   	nop    
  101b7c:	8d 74 26 00          	lea    0x0(%esi),%esi

00101b80 <bfree>:

// Free a disk block.
static void
bfree(int dev, uint b)
{
  101b80:	55                   	push   %ebp
  101b81:	89 e5                	mov    %esp,%ebp
  101b83:	83 ec 28             	sub    $0x28,%esp
  struct buf *bp;
  struct superblock sb;
  int bi, m;

  bzero(dev, b);
  101b86:	8b 45 0c             	mov    0xc(%ebp),%eax
  101b89:	89 44 24 04          	mov    %eax,0x4(%esp)
  101b8d:	8b 45 08             	mov    0x8(%ebp),%eax
  101b90:	89 04 24             	mov    %eax,(%esp)
  101b93:	e8 48 fe ff ff       	call   1019e0 <bzero>

//  cprintf("XXX %s\n",__func__);
  readsb(dev, &sb);
  101b98:	8d 45 e8             	lea    0xffffffe8(%ebp),%eax
  101b9b:	89 44 24 04          	mov    %eax,0x4(%esp)
  101b9f:	8b 45 08             	mov    0x8(%ebp),%eax
  101ba2:	89 04 24             	mov    %eax,(%esp)
  101ba5:	e8 e6 fd ff ff       	call   101990 <readsb>
  bp = bread(dev, BBLOCK(b, sb.ninodes));
  101baa:	8b 45 0c             	mov    0xc(%ebp),%eax
  101bad:	89 c2                	mov    %eax,%edx
  101baf:	c1 ea 0c             	shr    $0xc,%edx
  101bb2:	8b 45 f0             	mov    0xfffffff0(%ebp),%eax
  101bb5:	c1 e8 03             	shr    $0x3,%eax
  101bb8:	8d 04 02             	lea    (%edx,%eax,1),%eax
  101bbb:	83 c0 03             	add    $0x3,%eax
  101bbe:	8b 55 08             	mov    0x8(%ebp),%edx
  101bc1:	89 44 24 04          	mov    %eax,0x4(%esp)
  101bc5:	89 14 24             	mov    %edx,(%esp)
  101bc8:	e8 b3 e5 ff ff       	call   100180 <bread>
  101bcd:	89 45 f4             	mov    %eax,0xfffffff4(%ebp)
  bi = b % BPB;
  101bd0:	8b 45 0c             	mov    0xc(%ebp),%eax
  101bd3:	25 ff 0f 00 00       	and    $0xfff,%eax
  101bd8:	89 45 f8             	mov    %eax,0xfffffff8(%ebp)
  m = 1 << (bi % 8);
  101bdb:	8b 55 f8             	mov    0xfffffff8(%ebp),%edx
  101bde:	89 d0                	mov    %edx,%eax
  101be0:	c1 f8 1f             	sar    $0x1f,%eax
  101be3:	89 c1                	mov    %eax,%ecx
  101be5:	c1 e9 1d             	shr    $0x1d,%ecx
  101be8:	8d 04 0a             	lea    (%edx,%ecx,1),%eax
  101beb:	83 e0 07             	and    $0x7,%eax
  101bee:	29 c8                	sub    %ecx,%eax
  101bf0:	89 c1                	mov    %eax,%ecx
  101bf2:	b8 01 00 00 00       	mov    $0x1,%eax
  101bf7:	d3 e0                	shl    %cl,%eax
  101bf9:	89 45 fc             	mov    %eax,0xfffffffc(%ebp)
  if((bp->data[bi/8] & m) == 0)
  101bfc:	8b 55 f8             	mov    0xfffffff8(%ebp),%edx
  101bff:	89 d0                	mov    %edx,%eax
  101c01:	c1 f8 1f             	sar    $0x1f,%eax
  101c04:	c1 e8 1d             	shr    $0x1d,%eax
  101c07:	01 d0                	add    %edx,%eax
  101c09:	c1 f8 03             	sar    $0x3,%eax
  101c0c:	89 c2                	mov    %eax,%edx
  101c0e:	8b 45 f4             	mov    0xfffffff4(%ebp),%eax
  101c11:	0f b6 44 02 18       	movzbl 0x18(%edx,%eax,1),%eax
  101c16:	0f b6 c0             	movzbl %al,%eax
  101c19:	23 45 fc             	and    0xfffffffc(%ebp),%eax
  101c1c:	85 c0                	test   %eax,%eax
  101c1e:	75 0c                	jne    101c2c <bfree+0xac>
    panic("freeing free block");
  101c20:	c7 04 24 05 a4 11 00 	movl   $0x11a405,(%esp)
  101c27:	e8 e4 f3 ff ff       	call   101010 <panic>
  bp->data[bi/8] &= ~m;  // Mark block free on disk.
  101c2c:	8b 55 f8             	mov    0xfffffff8(%ebp),%edx
  101c2f:	89 d0                	mov    %edx,%eax
  101c31:	c1 f8 1f             	sar    $0x1f,%eax
  101c34:	c1 e8 1d             	shr    $0x1d,%eax
  101c37:	01 d0                	add    %edx,%eax
  101c39:	c1 f8 03             	sar    $0x3,%eax
  101c3c:	89 c1                	mov    %eax,%ecx
  101c3e:	89 c2                	mov    %eax,%edx
  101c40:	8b 45 f4             	mov    0xfffffff4(%ebp),%eax
  101c43:	0f b6 44 02 18       	movzbl 0x18(%edx,%eax,1),%eax
  101c48:	89 c2                	mov    %eax,%edx
  101c4a:	8b 45 fc             	mov    0xfffffffc(%ebp),%eax
  101c4d:	f7 d0                	not    %eax
  101c4f:	21 d0                	and    %edx,%eax
  101c51:	89 c2                	mov    %eax,%edx
  101c53:	8b 45 f4             	mov    0xfffffff4(%ebp),%eax
  101c56:	88 54 01 18          	mov    %dl,0x18(%ecx,%eax,1)
  bwrite(bp);
  101c5a:	8b 45 f4             	mov    0xfffffff4(%ebp),%eax
  101c5d:	89 04 24             	mov    %eax,(%esp)
  101c60:	e8 5b e5 ff ff       	call   1001c0 <bwrite>
  brelse(bp);
  101c65:	8b 45 f4             	mov    0xfffffff4(%ebp),%eax
  101c68:	89 04 24             	mov    %eax,(%esp)
  101c6b:	e8 90 e5 ff ff       	call   100200 <brelse>
}
  101c70:	c9                   	leave  
  101c71:	c3                   	ret    
  101c72:	8d b4 26 00 00 00 00 	lea    0x0(%esi),%esi
  101c79:	8d bc 27 00 00 00 00 	lea    0x0(%edi),%edi

00101c80 <iinit>:

// Inodes.
//
// An inode is a single, unnamed file in the file system.
// The inode disk structure holds metadata (the type, device numbers,
// and data size) along with a list of blocks where the associated
// data can be found.
//
// The inodes are laid out sequentially on disk immediately after
// the superblock.  The kernel keeps a cache of the in-use
// on-disk structures to provide a place for synchronizing access
// to inodes shared between multiple processes.
// 
// ip->ref counts the number of pointer references to this cached
// inode; references are typically kept in struct file and in cp->cwd.
// When ip->ref falls to zero, the inode is no longer cached.
// It is an error to use an inode without holding a reference to it.
//
// Processes are only allowed to read and write inode
// metadata and contents when holding the inode's lock,
// represented by the I_BUSY flag in the in-memory copy.
// Because inode locks are held during disk accesses, 
// they are implemented using a flag rather than with
// spin locks.  Callers are responsible for locking
// inodes before passing them to routines in this file; leaving
// this responsibility with the caller makes it possible for them
// to create arbitrarily-sized atomic operations.
//
// To give maximum control over locking to the callers, 
// the routines in this file that return inode pointers 
// return pointers to *unlocked* inodes.  It is the callers'
// responsibility to lock them before using them.  A non-zero
// ip->ref keeps these unlocked inodes in the cache.

struct {
  struct spinlock lock;
  struct inode inode[NINODE];
} icache;

void
iinit(void)
{
  101c80:	55                   	push   %ebp
  101c81:	89 e5                	mov    %esp,%ebp
  101c83:	83 ec 08             	sub    $0x8,%esp
  initlock(&icache.lock, "icache.lock");
  101c86:	c7 44 24 04 18 a4 11 	movl   $0x11a418,0x4(%esp)
  101c8d:	00 
  101c8e:	c7 04 24 e0 bb 13 00 	movl   $0x13bbe0,(%esp)
  101c95:	e8 76 3e 00 00       	call   105b10 <initlock>
}
  101c9a:	c9                   	leave  
  101c9b:	c3                   	ret    
  101c9c:	8d 74 26 00          	lea    0x0(%esi),%esi

00101ca0 <iget>:

// Find the inode with number inum on device dev
// and return the in-memory copy.
static struct inode*
iget(uint dev, uint inum)
{
  101ca0:	55                   	push   %ebp
  101ca1:	89 e5                	mov    %esp,%ebp
  101ca3:	83 ec 18             	sub    $0x18,%esp
  struct inode *ip, *empty;

  acquire(&icache.lock);
  101ca6:	c7 04 24 e0 bb 13 00 	movl   $0x13bbe0,(%esp)
  101cad:	e8 8e 3e 00 00       	call   105b40 <acquire>

  // Try for cached inode.
  empty = 0;
  101cb2:	c7 45 fc 00 00 00 00 	movl   $0x0,0xfffffffc(%ebp)
  for(ip = &icache.inode[0]; ip < &icache.inode[NINODE]; ip++){
  101cb9:	c7 45 f8 14 bc 13 00 	movl   $0x13bc14,0xfffffff8(%ebp)
  101cc0:	eb 5c                	jmp    101d1e <iget+0x7e>
    if(ip->ref > 0 && ip->dev == dev && ip->inum == inum){
  101cc2:	8b 45 f8             	mov    0xfffffff8(%ebp),%eax
  101cc5:	8b 40 08             	mov    0x8(%eax),%eax
  101cc8:	85 c0                	test   %eax,%eax
  101cca:	7e 38                	jle    101d04 <iget+0x64>
  101ccc:	8b 45 f8             	mov    0xfffffff8(%ebp),%eax
  101ccf:	8b 00                	mov    (%eax),%eax
  101cd1:	3b 45 08             	cmp    0x8(%ebp),%eax
  101cd4:	75 2e                	jne    101d04 <iget+0x64>
  101cd6:	8b 45 f8             	mov    0xfffffff8(%ebp),%eax
  101cd9:	8b 40 04             	mov    0x4(%eax),%eax
  101cdc:	3b 45 0c             	cmp    0xc(%ebp),%eax
  101cdf:	75 23                	jne    101d04 <iget+0x64>
      ip->ref++;
  101ce1:	8b 45 f8             	mov    0xfffffff8(%ebp),%eax
  101ce4:	8b 40 08             	mov    0x8(%eax),%eax
  101ce7:	8d 50 01             	lea    0x1(%eax),%edx
  101cea:	8b 45 f8             	mov    0xfffffff8(%ebp),%eax
  101ced:	89 50 08             	mov    %edx,0x8(%eax)
      release(&icache.lock);
  101cf0:	c7 04 24 e0 bb 13 00 	movl   $0x13bbe0,(%esp)
  101cf7:	e8 44 40 00 00       	call   105d40 <release>
//      cprintf("XXX iget: found in cache\n");
      return ip;
  101cfc:	8b 45 f8             	mov    0xfffffff8(%ebp),%eax
  101cff:	89 45 ec             	mov    %eax,0xffffffec(%ebp)
  101d02:	eb 73                	jmp    101d77 <iget+0xd7>
    }
    if(empty == 0 && ip->ref == 0)    // Remember empty slot.
  101d04:	83 7d fc 00          	cmpl   $0x0,0xfffffffc(%ebp)
  101d08:	75 10                	jne    101d1a <iget+0x7a>
  101d0a:	8b 45 f8             	mov    0xfffffff8(%ebp),%eax
  101d0d:	8b 40 08             	mov    0x8(%eax),%eax
  101d10:	85 c0                	test   %eax,%eax
  101d12:	75 06                	jne    101d1a <iget+0x7a>
      empty = ip;
  101d14:	8b 45 f8             	mov    0xfffffff8(%ebp),%eax
  101d17:	89 45 fc             	mov    %eax,0xfffffffc(%ebp)
  101d1a:	83 45 f8 50          	addl   $0x50,0xfffffff8(%ebp)
  101d1e:	b8 b4 cb 13 00       	mov    $0x13cbb4,%eax
  101d23:	39 45 f8             	cmp    %eax,0xfffffff8(%ebp)
  101d26:	72 9a                	jb     101cc2 <iget+0x22>
  }

  // Allocate fresh inode.
  if(empty == 0)
  101d28:	83 7d fc 00          	cmpl   $0x0,0xfffffffc(%ebp)
  101d2c:	75 0c                	jne    101d3a <iget+0x9a>
    panic("iget: no inodes");
  101d2e:	c7 04 24 24 a4 11 00 	movl   $0x11a424,(%esp)
  101d35:	e8 d6 f2 ff ff       	call   101010 <panic>

//  cprintf("XXX iget: allocating new\n");
  ip = empty;
  101d3a:	8b 45 fc             	mov    0xfffffffc(%ebp),%eax
  101d3d:	89 45 f8             	mov    %eax,0xfffffff8(%ebp)
  ip->dev = dev;
  101d40:	8b 55 f8             	mov    0xfffffff8(%ebp),%edx
  101d43:	8b 45 08             	mov    0x8(%ebp),%eax
  101d46:	89 02                	mov    %eax,(%edx)
  ip->inum = inum;
  101d48:	8b 55 f8             	mov    0xfffffff8(%ebp),%edx
  101d4b:	8b 45 0c             	mov    0xc(%ebp),%eax
  101d4e:	89 42 04             	mov    %eax,0x4(%edx)
  ip->ref = 1;
  101d51:	8b 45 f8             	mov    0xfffffff8(%ebp),%eax
  101d54:	c7 40 08 01 00 00 00 	movl   $0x1,0x8(%eax)
  ip->flags = 0;
  101d5b:	8b 45 f8             	mov    0xfffffff8(%ebp),%eax
  101d5e:	c7 40 0c 00 00 00 00 	movl   $0x0,0xc(%eax)
  release(&icache.lock);
  101d65:	c7 04 24 e0 bb 13 00 	movl   $0x13bbe0,(%esp)
  101d6c:	e8 cf 3f 00 00       	call   105d40 <release>

  return ip;
  101d71:	8b 45 f8             	mov    0xfffffff8(%ebp),%eax
  101d74:	89 45 ec             	mov    %eax,0xffffffec(%ebp)
  101d77:	8b 45 ec             	mov    0xffffffec(%ebp),%eax
}
  101d7a:	c9                   	leave  
  101d7b:	c3                   	ret    
  101d7c:	8d 74 26 00          	lea    0x0(%esi),%esi

00101d80 <idup>:

// Increment reference count for ip.
// Returns ip to enable ip = idup(ip1) idiom.
struct inode*
idup(struct inode *ip)
{
  101d80:	55                   	push   %ebp
  101d81:	89 e5                	mov    %esp,%ebp
  101d83:	83 ec 08             	sub    $0x8,%esp
  acquire(&icache.lock);
  101d86:	c7 04 24 e0 bb 13 00 	movl   $0x13bbe0,(%esp)
  101d8d:	e8 ae 3d 00 00       	call   105b40 <acquire>
  ip->ref++;
  101d92:	8b 45 08             	mov    0x8(%ebp),%eax
  101d95:	8b 40 08             	mov    0x8(%eax),%eax
  101d98:	8d 50 01             	lea    0x1(%eax),%edx
  101d9b:	8b 45 08             	mov    0x8(%ebp),%eax
  101d9e:	89 50 08             	mov    %edx,0x8(%eax)
  release(&icache.lock);
  101da1:	c7 04 24 e0 bb 13 00 	movl   $0x13bbe0,(%esp)
  101da8:	e8 93 3f 00 00       	call   105d40 <release>
  return ip;
  101dad:	8b 45 08             	mov    0x8(%ebp),%eax
}
  101db0:	c9                   	leave  
  101db1:	c3                   	ret    
  101db2:	8d b4 26 00 00 00 00 	lea    0x0(%esi),%esi
  101db9:	8d bc 27 00 00 00 00 	lea    0x0(%edi),%edi

00101dc0 <ilock>:

// Lock the given inode.
void
ilock(struct inode *ip)
{
  101dc0:	55                   	push   %ebp
  101dc1:	89 e5                	mov    %esp,%ebp
  101dc3:	83 ec 28             	sub    $0x28,%esp
  struct buf *bp;
  struct dinode *dip;

  if(ip == 0 || ip->ref < 1)
  101dc6:	83 7d 08 00          	cmpl   $0x0,0x8(%ebp)
  101dca:	74 0a                	je     101dd6 <ilock+0x16>
  101dcc:	8b 45 08             	mov    0x8(%ebp),%eax
  101dcf:	8b 40 08             	mov    0x8(%eax),%eax
  101dd2:	85 c0                	test   %eax,%eax
  101dd4:	7f 0c                	jg     101de2 <ilock+0x22>
    panic("ilock");
  101dd6:	c7 04 24 34 a4 11 00 	movl   $0x11a434,(%esp)
  101ddd:	e8 2e f2 ff ff       	call   101010 <panic>

  acquire(&icache.lock);
  101de2:	c7 04 24 e0 bb 13 00 	movl   $0x13bbe0,(%esp)
  101de9:	e8 52 3d 00 00       	call   105b40 <acquire>
  while(ip->flags & I_BUSY)
  101dee:	eb 13                	jmp    101e03 <ilock+0x43>
    sleep(ip, &icache.lock);
  101df0:	c7 44 24 04 e0 bb 13 	movl   $0x13bbe0,0x4(%esp)
  101df7:	00 
  101df8:	8b 45 08             	mov    0x8(%ebp),%eax
  101dfb:	89 04 24             	mov    %eax,(%esp)
  101dfe:	e8 8d 36 00 00       	call   105490 <sleep>
  101e03:	8b 45 08             	mov    0x8(%ebp),%eax
  101e06:	8b 40 0c             	mov    0xc(%eax),%eax
  101e09:	83 e0 01             	and    $0x1,%eax
  101e0c:	84 c0                	test   %al,%al
  101e0e:	75 e0                	jne    101df0 <ilock+0x30>
  ip->flags |= I_BUSY;
  101e10:	8b 45 08             	mov    0x8(%ebp),%eax
  101e13:	8b 40 0c             	mov    0xc(%eax),%eax
  101e16:	89 c2                	mov    %eax,%edx
  101e18:	83 ca 01             	or     $0x1,%edx
  101e1b:	8b 45 08             	mov    0x8(%ebp),%eax
  101e1e:	89 50 0c             	mov    %edx,0xc(%eax)
  release(&icache.lock);
  101e21:	c7 04 24 e0 bb 13 00 	movl   $0x13bbe0,(%esp)
  101e28:	e8 13 3f 00 00       	call   105d40 <release>

  if(!(ip->flags & I_VALID)){
  101e2d:	8b 45 08             	mov    0x8(%ebp),%eax
  101e30:	8b 40 0c             	mov    0xc(%eax),%eax
  101e33:	83 e0 02             	and    $0x2,%eax
  101e36:	85 c0                	test   %eax,%eax
  101e38:	0f 85 d1 00 00 00    	jne    101f0f <ilock+0x14f>
    bp = bread(ip->dev, IBLOCK(ip->inum));
  101e3e:	8b 45 08             	mov    0x8(%ebp),%eax
  101e41:	8b 40 04             	mov    0x4(%eax),%eax
  101e44:	c1 e8 03             	shr    $0x3,%eax
  101e47:	8d 50 02             	lea    0x2(%eax),%edx
  101e4a:	8b 45 08             	mov    0x8(%ebp),%eax
  101e4d:	8b 00                	mov    (%eax),%eax
  101e4f:	89 54 24 04          	mov    %edx,0x4(%esp)
  101e53:	89 04 24             	mov    %eax,(%esp)
  101e56:	e8 25 e3 ff ff       	call   100180 <bread>
  101e5b:	89 45 f8             	mov    %eax,0xfffffff8(%ebp)
//  cprintf("XXX %s:after bread \n",__func__);
    dip = (struct dinode*)bp->data + ip->inum%IPB;
  101e5e:	8b 45 f8             	mov    0xfffffff8(%ebp),%eax
  101e61:	83 c0 18             	add    $0x18,%eax
  101e64:	89 c2                	mov    %eax,%edx
  101e66:	8b 45 08             	mov    0x8(%ebp),%eax
  101e69:	8b 40 04             	mov    0x4(%eax),%eax
  101e6c:	83 e0 07             	and    $0x7,%eax
  101e6f:	c1 e0 06             	shl    $0x6,%eax
  101e72:	8d 04 02             	lea    (%edx,%eax,1),%eax
  101e75:	89 45 fc             	mov    %eax,0xfffffffc(%ebp)
    ip->type = dip->type;
  101e78:	8b 45 fc             	mov    0xfffffffc(%ebp),%eax
  101e7b:	0f b7 10             	movzwl (%eax),%edx
  101e7e:	8b 45 08             	mov    0x8(%ebp),%eax
  101e81:	66 89 50 10          	mov    %dx,0x10(%eax)
    ip->major = dip->major;
  101e85:	8b 45 fc             	mov    0xfffffffc(%ebp),%eax
  101e88:	0f b7 50 02          	movzwl 0x2(%eax),%edx
  101e8c:	8b 45 08             	mov    0x8(%ebp),%eax
  101e8f:	66 89 50 12          	mov    %dx,0x12(%eax)
    ip->minor = dip->minor;
  101e93:	8b 45 fc             	mov    0xfffffffc(%ebp),%eax
  101e96:	0f b7 50 04          	movzwl 0x4(%eax),%edx
  101e9a:	8b 45 08             	mov    0x8(%ebp),%eax
  101e9d:	66 89 50 14          	mov    %dx,0x14(%eax)
    ip->nlink = dip->nlink;
  101ea1:	8b 45 fc             	mov    0xfffffffc(%ebp),%eax
  101ea4:	0f b7 50 06          	movzwl 0x6(%eax),%edx
  101ea8:	8b 45 08             	mov    0x8(%ebp),%eax
  101eab:	66 89 50 16          	mov    %dx,0x16(%eax)
    ip->size = dip->size;
  101eaf:	8b 45 fc             	mov    0xfffffffc(%ebp),%eax
  101eb2:	8b 50 08             	mov    0x8(%eax),%edx
  101eb5:	8b 45 08             	mov    0x8(%ebp),%eax
  101eb8:	89 50 18             	mov    %edx,0x18(%eax)
    memmove(ip->addrs, dip->addrs, sizeof(ip->addrs));
  101ebb:	8b 45 fc             	mov    0xfffffffc(%ebp),%eax
  101ebe:	83 c0 0c             	add    $0xc,%eax
  101ec1:	8b 55 08             	mov    0x8(%ebp),%edx
  101ec4:	83 c2 1c             	add    $0x1c,%edx
  101ec7:	c7 44 24 08 34 00 00 	movl   $0x34,0x8(%esp)
  101ece:	00 
  101ecf:	89 44 24 04          	mov    %eax,0x4(%esp)
  101ed3:	89 14 24             	mov    %edx,(%esp)
  101ed6:	e8 b5 40 00 00       	call   105f90 <memmove>
    brelse(bp);
  101edb:	8b 45 f8             	mov    0xfffffff8(%ebp),%eax
  101ede:	89 04 24             	mov    %eax,(%esp)
  101ee1:	e8 1a e3 ff ff       	call   100200 <brelse>
    ip->flags |= I_VALID;
  101ee6:	8b 45 08             	mov    0x8(%ebp),%eax
  101ee9:	8b 40 0c             	mov    0xc(%eax),%eax
  101eec:	89 c2                	mov    %eax,%edx
  101eee:	83 ca 02             	or     $0x2,%edx
  101ef1:	8b 45 08             	mov    0x8(%ebp),%eax
  101ef4:	89 50 0c             	mov    %edx,0xc(%eax)
    if(ip->type == 0)
  101ef7:	8b 45 08             	mov    0x8(%ebp),%eax
  101efa:	0f b7 40 10          	movzwl 0x10(%eax),%eax
  101efe:	66 85 c0             	test   %ax,%ax
  101f01:	75 0c                	jne    101f0f <ilock+0x14f>
      panic("ilock: no type");
  101f03:	c7 04 24 3a a4 11 00 	movl   $0x11a43a,(%esp)
  101f0a:	e8 01 f1 ff ff       	call   101010 <panic>
  }
}
  101f0f:	c9                   	leave  
  101f10:	c3                   	ret    
  101f11:	eb 0d                	jmp    101f20 <iunlock>
  101f13:	90                   	nop    
  101f14:	90                   	nop    
  101f15:	90                   	nop    
  101f16:	90                   	nop    
  101f17:	90                   	nop    
  101f18:	90                   	nop    
  101f19:	90                   	nop    
  101f1a:	90                   	nop    
  101f1b:	90                   	nop    
  101f1c:	90                   	nop    
  101f1d:	90                   	nop    
  101f1e:	90                   	nop    
  101f1f:	90                   	nop    

00101f20 <iunlock>:

// Unlock the given inode.
void
iunlock(struct inode *ip)
{
  101f20:	55                   	push   %ebp
  101f21:	89 e5                	mov    %esp,%ebp
  101f23:	83 ec 08             	sub    $0x8,%esp
  if(ip == 0 || !(ip->flags & I_BUSY) || ip->ref < 1)
  101f26:	83 7d 08 00          	cmpl   $0x0,0x8(%ebp)
  101f2a:	74 17                	je     101f43 <iunlock+0x23>
  101f2c:	8b 45 08             	mov    0x8(%ebp),%eax
  101f2f:	8b 40 0c             	mov    0xc(%eax),%eax
  101f32:	83 e0 01             	and    $0x1,%eax
  101f35:	85 c0                	test   %eax,%eax
  101f37:	74 0a                	je     101f43 <iunlock+0x23>
  101f39:	8b 45 08             	mov    0x8(%ebp),%eax
  101f3c:	8b 40 08             	mov    0x8(%eax),%eax
  101f3f:	85 c0                	test   %eax,%eax
  101f41:	7f 0c                	jg     101f4f <iunlock+0x2f>
    panic("iunlock");
  101f43:	c7 04 24 49 a4 11 00 	movl   $0x11a449,(%esp)
  101f4a:	e8 c1 f0 ff ff       	call   101010 <panic>

  acquire(&icache.lock);
  101f4f:	c7 04 24 e0 bb 13 00 	movl   $0x13bbe0,(%esp)
  101f56:	e8 e5 3b 00 00       	call   105b40 <acquire>
  ip->flags &= ~I_BUSY;
  101f5b:	8b 45 08             	mov    0x8(%ebp),%eax
  101f5e:	8b 40 0c             	mov    0xc(%eax),%eax
  101f61:	89 c2                	mov    %eax,%edx
  101f63:	83 e2 fe             	and    $0xfffffffe,%edx
  101f66:	8b 45 08             	mov    0x8(%ebp),%eax
  101f69:	89 50 0c             	mov    %edx,0xc(%eax)
  wakeup(ip);
  101f6c:	8b 45 08             	mov    0x8(%ebp),%eax
  101f6f:	89 04 24             	mov    %eax,(%esp)
  101f72:	e8 a9 36 00 00       	call   105620 <wakeup>
  release(&icache.lock);
  101f77:	c7 04 24 e0 bb 13 00 	movl   $0x13bbe0,(%esp)
  101f7e:	e8 bd 3d 00 00       	call   105d40 <release>
}
  101f83:	c9                   	leave  
  101f84:	c3                   	ret    
  101f85:	8d 74 26 00          	lea    0x0(%esi),%esi
  101f89:	8d bc 27 00 00 00 00 	lea    0x0(%edi),%edi

00101f90 <iput>:

// Caller holds reference to unlocked ip.  Drop reference.
void
iput(struct inode *ip)
{
  101f90:	55                   	push   %ebp
  101f91:	89 e5                	mov    %esp,%ebp
  101f93:	83 ec 08             	sub    $0x8,%esp
  acquire(&icache.lock);
  101f96:	c7 04 24 e0 bb 13 00 	movl   $0x13bbe0,(%esp)
  101f9d:	e8 9e 3b 00 00       	call   105b40 <acquire>
  if(ip->ref == 1 && (ip->flags & I_VALID) && ip->nlink == 0){
  101fa2:	8b 45 08             	mov    0x8(%ebp),%eax
  101fa5:	8b 40 08             	mov    0x8(%eax),%eax
  101fa8:	83 f8 01             	cmp    $0x1,%eax
  101fab:	0f 85 9a 00 00 00    	jne    10204b <iput+0xbb>
  101fb1:	8b 45 08             	mov    0x8(%ebp),%eax
  101fb4:	8b 40 0c             	mov    0xc(%eax),%eax
  101fb7:	83 e0 02             	and    $0x2,%eax
  101fba:	85 c0                	test   %eax,%eax
  101fbc:	0f 84 89 00 00 00    	je     10204b <iput+0xbb>
  101fc2:	8b 45 08             	mov    0x8(%ebp),%eax
  101fc5:	0f b7 40 16          	movzwl 0x16(%eax),%eax
  101fc9:	66 85 c0             	test   %ax,%ax
  101fcc:	75 7d                	jne    10204b <iput+0xbb>
    // inode is no longer used: truncate and free inode.
    if(ip->flags & I_BUSY)
  101fce:	8b 45 08             	mov    0x8(%ebp),%eax
  101fd1:	8b 40 0c             	mov    0xc(%eax),%eax
  101fd4:	83 e0 01             	and    $0x1,%eax
  101fd7:	84 c0                	test   %al,%al
  101fd9:	74 0c                	je     101fe7 <iput+0x57>
      panic("iput busy");
  101fdb:	c7 04 24 51 a4 11 00 	movl   $0x11a451,(%esp)
  101fe2:	e8 29 f0 ff ff       	call   101010 <panic>
    ip->flags |= I_BUSY;
  101fe7:	8b 45 08             	mov    0x8(%ebp),%eax
  101fea:	8b 40 0c             	mov    0xc(%eax),%eax
  101fed:	89 c2                	mov    %eax,%edx
  101fef:	83 ca 01             	or     $0x1,%edx
  101ff2:	8b 45 08             	mov    0x8(%ebp),%eax
  101ff5:	89 50 0c             	mov    %edx,0xc(%eax)
    release(&icache.lock);
  101ff8:	c7 04 24 e0 bb 13 00 	movl   $0x13bbe0,(%esp)
  101fff:	e8 3c 3d 00 00       	call   105d40 <release>
    itrunc(ip);
  102004:	8b 45 08             	mov    0x8(%ebp),%eax
  102007:	89 04 24             	mov    %eax,(%esp)
  10200a:	e8 81 03 00 00       	call   102390 <itrunc>
    ip->type = 0;
  10200f:	8b 45 08             	mov    0x8(%ebp),%eax
  102012:	66 c7 40 10 00 00    	movw   $0x0,0x10(%eax)
    iupdate(ip);
  102018:	8b 45 08             	mov    0x8(%ebp),%eax
  10201b:	89 04 24             	mov    %eax,(%esp)
  10201e:	e8 5d 01 00 00       	call   102180 <iupdate>
    acquire(&icache.lock);
  102023:	c7 04 24 e0 bb 13 00 	movl   $0x13bbe0,(%esp)
  10202a:	e8 11 3b 00 00       	call   105b40 <acquire>
    ip->flags &= ~I_BUSY;
  10202f:	8b 45 08             	mov    0x8(%ebp),%eax
  102032:	8b 40 0c             	mov    0xc(%eax),%eax
  102035:	89 c2                	mov    %eax,%edx
  102037:	83 e2 fe             	and    $0xfffffffe,%edx
  10203a:	8b 45 08             	mov    0x8(%ebp),%eax
  10203d:	89 50 0c             	mov    %edx,0xc(%eax)
    wakeup(ip);
  102040:	8b 45 08             	mov    0x8(%ebp),%eax
  102043:	89 04 24             	mov    %eax,(%esp)
  102046:	e8 d5 35 00 00       	call   105620 <wakeup>
  }
  ip->ref--;
  10204b:	8b 45 08             	mov    0x8(%ebp),%eax
  10204e:	8b 40 08             	mov    0x8(%eax),%eax
  102051:	8d 50 ff             	lea    0xffffffff(%eax),%edx
  102054:	8b 45 08             	mov    0x8(%ebp),%eax
  102057:	89 50 08             	mov    %edx,0x8(%eax)
  release(&icache.lock);
  10205a:	c7 04 24 e0 bb 13 00 	movl   $0x13bbe0,(%esp)
  102061:	e8 da 3c 00 00       	call   105d40 <release>
}
  102066:	c9                   	leave  
  102067:	c3                   	ret    
  102068:	90                   	nop    
  102069:	8d b4 26 00 00 00 00 	lea    0x0(%esi),%esi

00102070 <iunlockput>:

// Common idiom: unlock, then put.
void
iunlockput(struct inode *ip)
{
  102070:	55                   	push   %ebp
  102071:	89 e5                	mov    %esp,%ebp
  102073:	83 ec 08             	sub    $0x8,%esp
  iunlock(ip);
  102076:	8b 45 08             	mov    0x8(%ebp),%eax
  102079:	89 04 24             	mov    %eax,(%esp)
  10207c:	e8 9f fe ff ff       	call   101f20 <iunlock>
  iput(ip);
  102081:	8b 45 08             	mov    0x8(%ebp),%eax
  102084:	89 04 24             	mov    %eax,(%esp)
  102087:	e8 04 ff ff ff       	call   101f90 <iput>
}
  10208c:	c9                   	leave  
  10208d:	c3                   	ret    
  10208e:	89 f6                	mov    %esi,%esi

00102090 <ialloc>:

// Allocate a new inode with the given type on device dev.
struct inode*
ialloc(uint dev, short type)
{
  102090:	55                   	push   %ebp
  102091:	89 e5                	mov    %esp,%ebp
  102093:	83 ec 38             	sub    $0x38,%esp
  102096:	8b 45 0c             	mov    0xc(%ebp),%eax
  102099:	66 89 45 dc          	mov    %ax,0xffffffdc(%ebp)
  int inum;
  struct buf *bp;
  struct dinode *dip;
  struct superblock sb;

//  cprintf("XXX %s\n",__func__);
  readsb(dev, &sb);
  10209d:	8b 55 08             	mov    0x8(%ebp),%edx
  1020a0:	8d 45 e8             	lea    0xffffffe8(%ebp),%eax
  1020a3:	89 44 24 04          	mov    %eax,0x4(%esp)
  1020a7:	89 14 24             	mov    %edx,(%esp)
  1020aa:	e8 e1 f8 ff ff       	call   101990 <readsb>
  for(inum = 1; inum < sb.ninodes; inum++){  // loop over inode blocks
  1020af:	c7 45 f4 01 00 00 00 	movl   $0x1,0xfffffff4(%ebp)
  1020b6:	e9 9e 00 00 00       	jmp    102159 <ialloc+0xc9>
    bp = bread(dev, IBLOCK(inum));
  1020bb:	8b 45 f4             	mov    0xfffffff4(%ebp),%eax
  1020be:	c1 e8 03             	shr    $0x3,%eax
  1020c1:	83 c0 02             	add    $0x2,%eax
  1020c4:	89 44 24 04          	mov    %eax,0x4(%esp)
  1020c8:	8b 45 08             	mov    0x8(%ebp),%eax
  1020cb:	89 04 24             	mov    %eax,(%esp)
  1020ce:	e8 ad e0 ff ff       	call   100180 <bread>
  1020d3:	89 45 f8             	mov    %eax,0xfffffff8(%ebp)
    dip = (struct dinode*)bp->data + inum%IPB;
  1020d6:	8b 45 f8             	mov    0xfffffff8(%ebp),%eax
  1020d9:	83 c0 18             	add    $0x18,%eax
  1020dc:	89 c2                	mov    %eax,%edx
  1020de:	8b 45 f4             	mov    0xfffffff4(%ebp),%eax
  1020e1:	83 e0 07             	and    $0x7,%eax
  1020e4:	c1 e0 06             	shl    $0x6,%eax
  1020e7:	8d 04 02             	lea    (%edx,%eax,1),%eax
  1020ea:	89 45 fc             	mov    %eax,0xfffffffc(%ebp)
    if(dip->type == 0){  // a free inode
  1020ed:	8b 45 fc             	mov    0xfffffffc(%ebp),%eax
  1020f0:	0f b7 00             	movzwl (%eax),%eax
  1020f3:	66 85 c0             	test   %ax,%ax
  1020f6:	75 52                	jne    10214a <ialloc+0xba>
      memset(dip, 0, sizeof(*dip));
  1020f8:	c7 44 24 08 40 00 00 	movl   $0x40,0x8(%esp)
  1020ff:	00 
  102100:	c7 44 24 04 00 00 00 	movl   $0x0,0x4(%esp)
  102107:	00 
  102108:	8b 45 fc             	mov    0xfffffffc(%ebp),%eax
  10210b:	89 04 24             	mov    %eax,(%esp)
  10210e:	e8 ed 3d 00 00       	call   105f00 <memset>
      dip->type = type;
  102113:	8b 55 fc             	mov    0xfffffffc(%ebp),%edx
  102116:	0f b7 45 dc          	movzwl 0xffffffdc(%ebp),%eax
  10211a:	66 89 02             	mov    %ax,(%edx)
      bwrite(bp);   // mark it allocated on the disk
  10211d:	8b 45 f8             	mov    0xfffffff8(%ebp),%eax
  102120:	89 04 24             	mov    %eax,(%esp)
  102123:	e8 98 e0 ff ff       	call   1001c0 <bwrite>
      brelse(bp);
  102128:	8b 45 f8             	mov    0xfffffff8(%ebp),%eax
  10212b:	89 04 24             	mov    %eax,(%esp)
  10212e:	e8 cd e0 ff ff       	call   100200 <brelse>
      return iget(dev, inum);
  102133:	8b 45 f4             	mov    0xfffffff4(%ebp),%eax
  102136:	89 44 24 04          	mov    %eax,0x4(%esp)
  10213a:	8b 45 08             	mov    0x8(%ebp),%eax
  10213d:	89 04 24             	mov    %eax,(%esp)
  102140:	e8 5b fb ff ff       	call   101ca0 <iget>
  102145:	89 45 d8             	mov    %eax,0xffffffd8(%ebp)
  102148:	eb 29                	jmp    102173 <ialloc+0xe3>
    }
    brelse(bp);
  10214a:	8b 45 f8             	mov    0xfffffff8(%ebp),%eax
  10214d:	89 04 24             	mov    %eax,(%esp)
  102150:	e8 ab e0 ff ff       	call   100200 <brelse>
  102155:	83 45 f4 01          	addl   $0x1,0xfffffff4(%ebp)
  102159:	8b 55 f4             	mov    0xfffffff4(%ebp),%edx
  10215c:	8b 45 f0             	mov    0xfffffff0(%ebp),%eax
  10215f:	39 c2                	cmp    %eax,%edx
  102161:	0f 82 54 ff ff ff    	jb     1020bb <ialloc+0x2b>
  }
  panic("ialloc: no inodes");
  102167:	c7 04 24 5b a4 11 00 	movl   $0x11a45b,(%esp)
  10216e:	e8 9d ee ff ff       	call   101010 <panic>
}
  102173:	8b 45 d8             	mov    0xffffffd8(%ebp),%eax
  102176:	c9                   	leave  
  102177:	c3                   	ret    
  102178:	90                   	nop    
  102179:	8d b4 26 00 00 00 00 	lea    0x0(%esi),%esi

00102180 <iupdate>:

// Copy inode, which has changed, from memory to disk.
void
iupdate(struct inode *ip)
{
  102180:	55                   	push   %ebp
  102181:	89 e5                	mov    %esp,%ebp
  102183:	83 ec 28             	sub    $0x28,%esp
  struct buf *bp;
  struct dinode *dip;

  bp = bread(ip->dev, IBLOCK(ip->inum));
  102186:	8b 45 08             	mov    0x8(%ebp),%eax
  102189:	8b 40 04             	mov    0x4(%eax),%eax
  10218c:	c1 e8 03             	shr    $0x3,%eax
  10218f:	8d 50 02             	lea    0x2(%eax),%edx
  102192:	8b 45 08             	mov    0x8(%ebp),%eax
  102195:	8b 00                	mov    (%eax),%eax
  102197:	89 54 24 04          	mov    %edx,0x4(%esp)
  10219b:	89 04 24             	mov    %eax,(%esp)
  10219e:	e8 dd df ff ff       	call   100180 <bread>
  1021a3:	89 45 f8             	mov    %eax,0xfffffff8(%ebp)
  dip = (struct dinode*)bp->data + ip->inum%IPB;
  1021a6:	8b 45 f8             	mov    0xfffffff8(%ebp),%eax
  1021a9:	83 c0 18             	add    $0x18,%eax
  1021ac:	89 c2                	mov    %eax,%edx
  1021ae:	8b 45 08             	mov    0x8(%ebp),%eax
  1021b1:	8b 40 04             	mov    0x4(%eax),%eax
  1021b4:	83 e0 07             	and    $0x7,%eax
  1021b7:	c1 e0 06             	shl    $0x6,%eax
  1021ba:	8d 04 02             	lea    (%edx,%eax,1),%eax
  1021bd:	89 45 fc             	mov    %eax,0xfffffffc(%ebp)
  dip->type = ip->type;
  1021c0:	8b 45 08             	mov    0x8(%ebp),%eax
  1021c3:	0f b7 50 10          	movzwl 0x10(%eax),%edx
  1021c7:	8b 45 fc             	mov    0xfffffffc(%ebp),%eax
  1021ca:	66 89 10             	mov    %dx,(%eax)
  dip->major = ip->major;
  1021cd:	8b 45 08             	mov    0x8(%ebp),%eax
  1021d0:	0f b7 50 12          	movzwl 0x12(%eax),%edx
  1021d4:	8b 45 fc             	mov    0xfffffffc(%ebp),%eax
  1021d7:	66 89 50 02          	mov    %dx,0x2(%eax)
  dip->minor = ip->minor;
  1021db:	8b 45 08             	mov    0x8(%ebp),%eax
  1021de:	0f b7 50 14          	movzwl 0x14(%eax),%edx
  1021e2:	8b 45 fc             	mov    0xfffffffc(%ebp),%eax
  1021e5:	66 89 50 04          	mov    %dx,0x4(%eax)
  dip->nlink = ip->nlink;
  1021e9:	8b 45 08             	mov    0x8(%ebp),%eax
  1021ec:	0f b7 50 16          	movzwl 0x16(%eax),%edx
  1021f0:	8b 45 fc             	mov    0xfffffffc(%ebp),%eax
  1021f3:	66 89 50 06          	mov    %dx,0x6(%eax)
  dip->size = ip->size;
  1021f7:	8b 45 08             	mov    0x8(%ebp),%eax
  1021fa:	8b 50 18             	mov    0x18(%eax),%edx
  1021fd:	8b 45 fc             	mov    0xfffffffc(%ebp),%eax
  102200:	89 50 08             	mov    %edx,0x8(%eax)
  memmove(dip->addrs, ip->addrs, sizeof(ip->addrs));
  102203:	8b 45 08             	mov    0x8(%ebp),%eax
  102206:	83 c0 1c             	add    $0x1c,%eax
  102209:	8b 55 fc             	mov    0xfffffffc(%ebp),%edx
  10220c:	83 c2 0c             	add    $0xc,%edx
  10220f:	c7 44 24 08 34 00 00 	movl   $0x34,0x8(%esp)
  102216:	00 
  102217:	89 44 24 04          	mov    %eax,0x4(%esp)
  10221b:	89 14 24             	mov    %edx,(%esp)
  10221e:	e8 6d 3d 00 00       	call   105f90 <memmove>
  bwrite(bp);
  102223:	8b 45 f8             	mov    0xfffffff8(%ebp),%eax
  102226:	89 04 24             	mov    %eax,(%esp)
  102229:	e8 92 df ff ff       	call   1001c0 <bwrite>
  brelse(bp);
  10222e:	8b 45 f8             	mov    0xfffffff8(%ebp),%eax
  102231:	89 04 24             	mov    %eax,(%esp)
  102234:	e8 c7 df ff ff       	call   100200 <brelse>
}
  102239:	c9                   	leave  
  10223a:	c3                   	ret    
  10223b:	90                   	nop    
  10223c:	8d 74 26 00          	lea    0x0(%esi),%esi

00102240 <bmap>:

// Inode contents
//
// The contents (data) associated with each inode is stored
// in a sequence of blocks on the disk.  The first NDIRECT blocks
// are listed in ip->addrs[].  The next NINDIRECT blocks are 
// listed in the block ip->addrs[INDIRECT].

// Return the disk block address of the nth block in inode ip.
// If there is no such block, alloc controls whether one is allocated.
static uint
bmap(struct inode *ip, uint bn, int alloc)
{
  102240:	55                   	push   %ebp
  102241:	89 e5                	mov    %esp,%ebp
  102243:	53                   	push   %ebx
  102244:	83 ec 24             	sub    $0x24,%esp
  uint addr, *a;
  struct buf *bp;

  if(bn < NDIRECT){
  102247:	83 7d 0c 0b          	cmpl   $0xb,0xc(%ebp)
  10224b:	77 4d                	ja     10229a <bmap+0x5a>
    if((addr = ip->addrs[bn]) == 0){
  10224d:	8b 45 0c             	mov    0xc(%ebp),%eax
  102250:	8b 55 08             	mov    0x8(%ebp),%edx
  102253:	8b 44 82 1c          	mov    0x1c(%edx,%eax,4),%eax
  102257:	89 45 f0             	mov    %eax,0xfffffff0(%ebp)
  10225a:	83 7d f0 00          	cmpl   $0x0,0xfffffff0(%ebp)
  10225e:	75 2f                	jne    10228f <bmap+0x4f>
      if(!alloc)
  102260:	83 7d 10 00          	cmpl   $0x0,0x10(%ebp)
  102264:	75 0c                	jne    102272 <bmap+0x32>
        return -1;
  102266:	c7 45 e8 ff ff ff ff 	movl   $0xffffffff,0xffffffe8(%ebp)
  10226d:	e9 08 01 00 00       	jmp    10237a <bmap+0x13a>
      ip->addrs[bn] = addr = balloc(ip->dev);
  102272:	8b 5d 0c             	mov    0xc(%ebp),%ebx
  102275:	8b 45 08             	mov    0x8(%ebp),%eax
  102278:	8b 00                	mov    (%eax),%eax
  10227a:	89 04 24             	mov    %eax,(%esp)
  10227d:	e8 be f7 ff ff       	call   101a40 <balloc>
  102282:	89 45 f0             	mov    %eax,0xfffffff0(%ebp)
  102285:	8b 55 08             	mov    0x8(%ebp),%edx
  102288:	8b 45 f0             	mov    0xfffffff0(%ebp),%eax
  10228b:	89 44 9a 1c          	mov    %eax,0x1c(%edx,%ebx,4)
    }
    return addr;
  10228f:	8b 45 f0             	mov    0xfffffff0(%ebp),%eax
  102292:	89 45 e8             	mov    %eax,0xffffffe8(%ebp)
  102295:	e9 e0 00 00 00       	jmp    10237a <bmap+0x13a>
  }
  bn -= NDIRECT;
  10229a:	83 6d 0c 0c          	subl   $0xc,0xc(%ebp)

  if(bn < NINDIRECT){
  10229e:	83 7d 0c 7f          	cmpl   $0x7f,0xc(%ebp)
  1022a2:	0f 87 c6 00 00 00    	ja     10236e <bmap+0x12e>
    // Load indirect block, allocating if necessary.
    if((addr = ip->addrs[INDIRECT]) == 0){
  1022a8:	8b 45 08             	mov    0x8(%ebp),%eax
  1022ab:	8b 40 4c             	mov    0x4c(%eax),%eax
  1022ae:	89 45 f0             	mov    %eax,0xfffffff0(%ebp)
  1022b1:	83 7d f0 00          	cmpl   $0x0,0xfffffff0(%ebp)
  1022b5:	75 2b                	jne    1022e2 <bmap+0xa2>
      if(!alloc)
  1022b7:	83 7d 10 00          	cmpl   $0x0,0x10(%ebp)
  1022bb:	75 0c                	jne    1022c9 <bmap+0x89>
        return -1;
  1022bd:	c7 45 e8 ff ff ff ff 	movl   $0xffffffff,0xffffffe8(%ebp)
  1022c4:	e9 b1 00 00 00       	jmp    10237a <bmap+0x13a>
      ip->addrs[INDIRECT] = addr = balloc(ip->dev);
  1022c9:	8b 45 08             	mov    0x8(%ebp),%eax
  1022cc:	8b 00                	mov    (%eax),%eax
  1022ce:	89 04 24             	mov    %eax,(%esp)
  1022d1:	e8 6a f7 ff ff       	call   101a40 <balloc>
  1022d6:	89 45 f0             	mov    %eax,0xfffffff0(%ebp)
  1022d9:	8b 55 08             	mov    0x8(%ebp),%edx
  1022dc:	8b 45 f0             	mov    0xfffffff0(%ebp),%eax
  1022df:	89 42 4c             	mov    %eax,0x4c(%edx)
    }
    bp = bread(ip->dev, addr);
  1022e2:	8b 45 08             	mov    0x8(%ebp),%eax
  1022e5:	8b 10                	mov    (%eax),%edx
  1022e7:	8b 45 f0             	mov    0xfffffff0(%ebp),%eax
  1022ea:	89 44 24 04          	mov    %eax,0x4(%esp)
  1022ee:	89 14 24             	mov    %edx,(%esp)
  1022f1:	e8 8a de ff ff       	call   100180 <bread>
  1022f6:	89 45 f8             	mov    %eax,0xfffffff8(%ebp)
    a = (uint*)bp->data;
  1022f9:	8b 45 f8             	mov    0xfffffff8(%ebp),%eax
  1022fc:	83 c0 18             	add    $0x18,%eax
  1022ff:	89 45 f4             	mov    %eax,0xfffffff4(%ebp)
  
    if((addr = a[bn]) == 0){
  102302:	8b 45 0c             	mov    0xc(%ebp),%eax
  102305:	c1 e0 02             	shl    $0x2,%eax
  102308:	03 45 f4             	add    0xfffffff4(%ebp),%eax
  10230b:	8b 00                	mov    (%eax),%eax
  10230d:	89 45 f0             	mov    %eax,0xfffffff0(%ebp)
  102310:	83 7d f0 00          	cmpl   $0x0,0xfffffff0(%ebp)
  102314:	75 45                	jne    10235b <bmap+0x11b>
      if(!alloc){
  102316:	83 7d 10 00          	cmpl   $0x0,0x10(%ebp)
  10231a:	75 14                	jne    102330 <bmap+0xf0>
        brelse(bp);
  10231c:	8b 45 f8             	mov    0xfffffff8(%ebp),%eax
  10231f:	89 04 24             	mov    %eax,(%esp)
  102322:	e8 d9 de ff ff       	call   100200 <brelse>
        return -1;
  102327:	c7 45 e8 ff ff ff ff 	movl   $0xffffffff,0xffffffe8(%ebp)
  10232e:	eb 4a                	jmp    10237a <bmap+0x13a>
      }
      a[bn] = addr = balloc(ip->dev);
  102330:	8b 45 0c             	mov    0xc(%ebp),%eax
  102333:	c1 e0 02             	shl    $0x2,%eax
  102336:	89 c3                	mov    %eax,%ebx
  102338:	03 5d f4             	add    0xfffffff4(%ebp),%ebx
  10233b:	8b 45 08             	mov    0x8(%ebp),%eax
  10233e:	8b 00                	mov    (%eax),%eax
  102340:	89 04 24             	mov    %eax,(%esp)
  102343:	e8 f8 f6 ff ff       	call   101a40 <balloc>
  102348:	89 45 f0             	mov    %eax,0xfffffff0(%ebp)
  10234b:	8b 45 f0             	mov    0xfffffff0(%ebp),%eax
  10234e:	89 03                	mov    %eax,(%ebx)
      bwrite(bp);
  102350:	8b 45 f8             	mov    0xfffffff8(%ebp),%eax
  102353:	89 04 24             	mov    %eax,(%esp)
  102356:	e8 65 de ff ff       	call   1001c0 <bwrite>
    }
    brelse(bp);
  10235b:	8b 45 f8             	mov    0xfffffff8(%ebp),%eax
  10235e:	89 04 24             	mov    %eax,(%esp)
  102361:	e8 9a de ff ff       	call   100200 <brelse>
    return addr;
  102366:	8b 45 f0             	mov    0xfffffff0(%ebp),%eax
  102369:	89 45 e8             	mov    %eax,0xffffffe8(%ebp)
  10236c:	eb 0c                	jmp    10237a <bmap+0x13a>
  }

  panic("bmap: out of range");
  10236e:	c7 04 24 6d a4 11 00 	movl   $0x11a46d,(%esp)
  102375:	e8 96 ec ff ff       	call   101010 <panic>
  10237a:	8b 45 e8             	mov    0xffffffe8(%ebp),%eax
}
  10237d:	83 c4 24             	add    $0x24,%esp
  102380:	5b                   	pop    %ebx
  102381:	5d                   	pop    %ebp
  102382:	c3                   	ret    
  102383:	8d b6 00 00 00 00    	lea    0x0(%esi),%esi
  102389:	8d bc 27 00 00 00 00 	lea    0x0(%edi),%edi

00102390 <itrunc>:

// Truncate inode (discard contents).
static void
itrunc(struct inode *ip)
{
  102390:	55                   	push   %ebp
  102391:	89 e5                	mov    %esp,%ebp
  102393:	83 ec 18             	sub    $0x18,%esp
  int i, j;
  struct buf *bp;
  uint *a;

  for(i = 0; i < NDIRECT; i++){
  102396:	c7 45 f0 00 00 00 00 	movl   $0x0,0xfffffff0(%ebp)
  10239d:	eb 3b                	jmp    1023da <itrunc+0x4a>
    if(ip->addrs[i]){
  10239f:	8b 45 f0             	mov    0xfffffff0(%ebp),%eax
  1023a2:	8b 55 08             	mov    0x8(%ebp),%edx
  1023a5:	8b 44 82 1c          	mov    0x1c(%edx,%eax,4),%eax
  1023a9:	85 c0                	test   %eax,%eax
  1023ab:	74 29                	je     1023d6 <itrunc+0x46>
      bfree(ip->dev, ip->addrs[i]);
  1023ad:	8b 55 f0             	mov    0xfffffff0(%ebp),%edx
  1023b0:	8b 45 08             	mov    0x8(%ebp),%eax
  1023b3:	8b 54 90 1c          	mov    0x1c(%eax,%edx,4),%edx
  1023b7:	8b 45 08             	mov    0x8(%ebp),%eax
  1023ba:	8b 00                	mov    (%eax),%eax
  1023bc:	89 54 24 04          	mov    %edx,0x4(%esp)
  1023c0:	89 04 24             	mov    %eax,(%esp)
  1023c3:	e8 b8 f7 ff ff       	call   101b80 <bfree>
      ip->addrs[i] = 0;
  1023c8:	8b 55 f0             	mov    0xfffffff0(%ebp),%edx
  1023cb:	8b 45 08             	mov    0x8(%ebp),%eax
  1023ce:	c7 44 90 1c 00 00 00 	movl   $0x0,0x1c(%eax,%edx,4)
  1023d5:	00 
  1023d6:	83 45 f0 01          	addl   $0x1,0xfffffff0(%ebp)
  1023da:	83 7d f0 0b          	cmpl   $0xb,0xfffffff0(%ebp)
  1023de:	7e bf                	jle    10239f <itrunc+0xf>
    }
  }
  
  if(ip->addrs[INDIRECT]){
  1023e0:	8b 45 08             	mov    0x8(%ebp),%eax
  1023e3:	8b 40 4c             	mov    0x4c(%eax),%eax
  1023e6:	85 c0                	test   %eax,%eax
  1023e8:	74 78                	je     102462 <itrunc+0xd2>
    bp = bread(ip->dev, ip->addrs[INDIRECT]);
  1023ea:	8b 45 08             	mov    0x8(%ebp),%eax
  1023ed:	8b 50 4c             	mov    0x4c(%eax),%edx
  1023f0:	8b 45 08             	mov    0x8(%ebp),%eax
  1023f3:	8b 00                	mov    (%eax),%eax
  1023f5:	89 54 24 04          	mov    %edx,0x4(%esp)
  1023f9:	89 04 24             	mov    %eax,(%esp)
  1023fc:	e8 7f dd ff ff       	call   100180 <bread>
  102401:	89 45 f8             	mov    %eax,0xfffffff8(%ebp)
    a = (uint*)bp->data;
  102404:	8b 45 f8             	mov    0xfffffff8(%ebp),%eax
  102407:	83 c0 18             	add    $0x18,%eax
  10240a:	89 45 fc             	mov    %eax,0xfffffffc(%ebp)
    for(j = 0; j < NINDIRECT; j++){
  10240d:	c7 45 f4 00 00 00 00 	movl   $0x0,0xfffffff4(%ebp)
  102414:	eb 2f                	jmp    102445 <itrunc+0xb5>
      if(a[j])
  102416:	8b 45 f4             	mov    0xfffffff4(%ebp),%eax
  102419:	c1 e0 02             	shl    $0x2,%eax
  10241c:	03 45 fc             	add    0xfffffffc(%ebp),%eax
  10241f:	8b 00                	mov    (%eax),%eax
  102421:	85 c0                	test   %eax,%eax
  102423:	74 1c                	je     102441 <itrunc+0xb1>
        bfree(ip->dev, a[j]);
  102425:	8b 45 f4             	mov    0xfffffff4(%ebp),%eax
  102428:	c1 e0 02             	shl    $0x2,%eax
  10242b:	03 45 fc             	add    0xfffffffc(%ebp),%eax
  10242e:	8b 10                	mov    (%eax),%edx
  102430:	8b 45 08             	mov    0x8(%ebp),%eax
  102433:	8b 00                	mov    (%eax),%eax
  102435:	89 54 24 04          	mov    %edx,0x4(%esp)
  102439:	89 04 24             	mov    %eax,(%esp)
  10243c:	e8 3f f7 ff ff       	call   101b80 <bfree>
  102441:	83 45 f4 01          	addl   $0x1,0xfffffff4(%ebp)
  102445:	8b 45 f4             	mov    0xfffffff4(%ebp),%eax
  102448:	83 f8 7f             	cmp    $0x7f,%eax
  10244b:	76 c9                	jbe    102416 <itrunc+0x86>
    }
    brelse(bp);
  10244d:	8b 45 f8             	mov    0xfffffff8(%ebp),%eax
  102450:	89 04 24             	mov    %eax,(%esp)
  102453:	e8 a8 dd ff ff       	call   100200 <brelse>
    ip->addrs[INDIRECT] = 0;
  102458:	8b 45 08             	mov    0x8(%ebp),%eax
  10245b:	c7 40 4c 00 00 00 00 	movl   $0x0,0x4c(%eax)
  }

  ip->size = 0;
  102462:	8b 45 08             	mov    0x8(%ebp),%eax
  102465:	c7 40 18 00 00 00 00 	movl   $0x0,0x18(%eax)
  iupdate(ip);
  10246c:	8b 45 08             	mov    0x8(%ebp),%eax
  10246f:	89 04 24             	mov    %eax,(%esp)
  102472:	e8 09 fd ff ff       	call   102180 <iupdate>
}
  102477:	c9                   	leave  
  102478:	c3                   	ret    
  102479:	8d b4 26 00 00 00 00 	lea    0x0(%esi),%esi

00102480 <stati>:

// Copy stat information from inode.
void
stati(struct inode *ip, struct stat *st)
{
  102480:	55                   	push   %ebp
  102481:	89 e5                	mov    %esp,%ebp
  st->dev = ip->dev;
  102483:	8b 45 08             	mov    0x8(%ebp),%eax
  102486:	8b 00                	mov    (%eax),%eax
  102488:	89 c2                	mov    %eax,%edx
  10248a:	8b 45 0c             	mov    0xc(%ebp),%eax
  10248d:	89 10                	mov    %edx,(%eax)
  st->ino = ip->inum;
  10248f:	8b 45 08             	mov    0x8(%ebp),%eax
  102492:	8b 50 04             	mov    0x4(%eax),%edx
  102495:	8b 45 0c             	mov    0xc(%ebp),%eax
  102498:	89 50 04             	mov    %edx,0x4(%eax)
  st->type = ip->type;
  10249b:	8b 45 08             	mov    0x8(%ebp),%eax
  10249e:	0f b7 50 10          	movzwl 0x10(%eax),%edx
  1024a2:	8b 45 0c             	mov    0xc(%ebp),%eax
  1024a5:	66 89 50 08          	mov    %dx,0x8(%eax)
  st->nlink = ip->nlink;
  1024a9:	8b 45 08             	mov    0x8(%ebp),%eax
  1024ac:	0f b7 50 16          	movzwl 0x16(%eax),%edx
  1024b0:	8b 45 0c             	mov    0xc(%ebp),%eax
  1024b3:	66 89 50 0a          	mov    %dx,0xa(%eax)
  st->size = ip->size;
  1024b7:	8b 45 08             	mov    0x8(%ebp),%eax
  1024ba:	8b 50 18             	mov    0x18(%eax),%edx
  1024bd:	8b 45 0c             	mov    0xc(%ebp),%eax
  1024c0:	89 50 0c             	mov    %edx,0xc(%eax)
}
  1024c3:	5d                   	pop    %ebp
  1024c4:	c3                   	ret    
  1024c5:	8d 74 26 00          	lea    0x0(%esi),%esi
  1024c9:	8d bc 27 00 00 00 00 	lea    0x0(%edi),%edi

001024d0 <readi>:

// Read data from inode.
int
readi(struct inode *ip, char *dst, uint off, uint n)
{
  1024d0:	55                   	push   %ebp
  1024d1:	89 e5                	mov    %esp,%ebp
  1024d3:	53                   	push   %ebx
  1024d4:	83 ec 34             	sub    $0x34,%esp
  uint tot, m;
  struct buf *bp;

//  cprintf("XXX readi %d.%d\n", ip->dev, ip->inum);
  if(ip->type == T_DEV){
  1024d7:	8b 45 08             	mov    0x8(%ebp),%eax
  1024da:	0f b7 40 10          	movzwl 0x10(%eax),%eax
  1024de:	66 83 f8 03          	cmp    $0x3,%ax
  1024e2:	75 65                	jne    102549 <readi+0x79>
    if(ip->major < 0 || ip->major >= NDEV || !devsw[ip->major].read)
  1024e4:	8b 45 08             	mov    0x8(%ebp),%eax
  1024e7:	0f b7 40 12          	movzwl 0x12(%eax),%eax
  1024eb:	66 85 c0             	test   %ax,%ax
  1024ee:	78 20                	js     102510 <readi+0x40>
  1024f0:	8b 45 08             	mov    0x8(%ebp),%eax
  1024f3:	0f b7 40 12          	movzwl 0x12(%eax),%eax
  1024f7:	66 83 f8 09          	cmp    $0x9,%ax
  1024fb:	7f 13                	jg     102510 <readi+0x40>
  1024fd:	8b 45 08             	mov    0x8(%ebp),%eax
  102500:	0f b7 40 12          	movzwl 0x12(%eax),%eax
  102504:	98                   	cwtl   
  102505:	8b 04 c5 80 bb 13 00 	mov    0x13bb80(,%eax,8),%eax
  10250c:	85 c0                	test   %eax,%eax
  10250e:	75 0c                	jne    10251c <readi+0x4c>
      return -1;
  102510:	c7 45 e4 ff ff ff ff 	movl   $0xffffffff,0xffffffe4(%ebp)
  102517:	e9 37 01 00 00       	jmp    102653 <readi+0x183>
    return devsw[ip->major].read(ip, dst, n);
  10251c:	8b 45 08             	mov    0x8(%ebp),%eax
  10251f:	0f b7 40 12          	movzwl 0x12(%eax),%eax
  102523:	98                   	cwtl   
  102524:	8b 14 c5 80 bb 13 00 	mov    0x13bb80(,%eax,8),%edx
  10252b:	8b 45 14             	mov    0x14(%ebp),%eax
  10252e:	89 44 24 08          	mov    %eax,0x8(%esp)
  102532:	8b 45 0c             	mov    0xc(%ebp),%eax
  102535:	89 44 24 04          	mov    %eax,0x4(%esp)
  102539:	8b 45 08             	mov    0x8(%ebp),%eax
  10253c:	89 04 24             	mov    %eax,(%esp)
  10253f:	ff d2                	call   *%edx
  102541:	89 45 e4             	mov    %eax,0xffffffe4(%ebp)
  102544:	e9 0a 01 00 00       	jmp    102653 <readi+0x183>
  }

  if(off > ip->size || off + n < off)
  102549:	8b 45 08             	mov    0x8(%ebp),%eax
  10254c:	8b 40 18             	mov    0x18(%eax),%eax
  10254f:	3b 45 10             	cmp    0x10(%ebp),%eax
  102552:	72 0b                	jb     10255f <readi+0x8f>
  102554:	8b 45 14             	mov    0x14(%ebp),%eax
  102557:	03 45 10             	add    0x10(%ebp),%eax
  10255a:	3b 45 10             	cmp    0x10(%ebp),%eax
  10255d:	73 0c                	jae    10256b <readi+0x9b>
    return -1;
  10255f:	c7 45 e4 ff ff ff ff 	movl   $0xffffffff,0xffffffe4(%ebp)
  102566:	e9 e8 00 00 00       	jmp    102653 <readi+0x183>
  if(off + n > ip->size)
  10256b:	8b 45 14             	mov    0x14(%ebp),%eax
  10256e:	8b 55 10             	mov    0x10(%ebp),%edx
  102571:	01 c2                	add    %eax,%edx
  102573:	8b 45 08             	mov    0x8(%ebp),%eax
  102576:	8b 40 18             	mov    0x18(%eax),%eax
  102579:	39 c2                	cmp    %eax,%edx
  10257b:	76 0c                	jbe    102589 <readi+0xb9>
    n = ip->size - off;
  10257d:	8b 45 08             	mov    0x8(%ebp),%eax
  102580:	8b 40 18             	mov    0x18(%eax),%eax
  102583:	2b 45 10             	sub    0x10(%ebp),%eax
  102586:	89 45 14             	mov    %eax,0x14(%ebp)

  for(tot=0; tot<n; tot+=m, off+=m, dst+=m){
  102589:	c7 45 f0 00 00 00 00 	movl   $0x0,0xfffffff0(%ebp)
  102590:	e9 ac 00 00 00       	jmp    102641 <readi+0x171>
    bp = bread(ip->dev, bmap(ip, off/BSIZE, 0));
  102595:	8b 45 10             	mov    0x10(%ebp),%eax
  102598:	c1 e8 09             	shr    $0x9,%eax
  10259b:	c7 44 24 08 00 00 00 	movl   $0x0,0x8(%esp)
  1025a2:	00 
  1025a3:	89 44 24 04          	mov    %eax,0x4(%esp)
  1025a7:	8b 45 08             	mov    0x8(%ebp),%eax
  1025aa:	89 04 24             	mov    %eax,(%esp)
  1025ad:	e8 8e fc ff ff       	call   102240 <bmap>
  1025b2:	89 c2                	mov    %eax,%edx
  1025b4:	8b 45 08             	mov    0x8(%ebp),%eax
  1025b7:	8b 00                	mov    (%eax),%eax
  1025b9:	89 54 24 04          	mov    %edx,0x4(%esp)
  1025bd:	89 04 24             	mov    %eax,(%esp)
  1025c0:	e8 bb db ff ff       	call   100180 <bread>
  1025c5:	89 45 f8             	mov    %eax,0xfffffff8(%ebp)
    m = min(n - tot, BSIZE - off%BSIZE);
  1025c8:	8b 55 10             	mov    0x10(%ebp),%edx
  1025cb:	81 e2 ff 01 00 00    	and    $0x1ff,%edx
  1025d1:	b8 00 02 00 00       	mov    $0x200,%eax
  1025d6:	89 c1                	mov    %eax,%ecx
  1025d8:	29 d1                	sub    %edx,%ecx
  1025da:	8b 55 f0             	mov    0xfffffff0(%ebp),%edx
  1025dd:	8b 45 14             	mov    0x14(%ebp),%eax
  1025e0:	89 c3                	mov    %eax,%ebx
  1025e2:	29 d3                	sub    %edx,%ebx
  1025e4:	89 5d e8             	mov    %ebx,0xffffffe8(%ebp)
  1025e7:	89 4d e0             	mov    %ecx,0xffffffe0(%ebp)
  1025ea:	8b 45 e8             	mov    0xffffffe8(%ebp),%eax
  1025ed:	39 45 e0             	cmp    %eax,0xffffffe0(%ebp)
  1025f0:	76 06                	jbe    1025f8 <readi+0x128>
  1025f2:	8b 5d e8             	mov    0xffffffe8(%ebp),%ebx
  1025f5:	89 5d e0             	mov    %ebx,0xffffffe0(%ebp)
  1025f8:	8b 45 e0             	mov    0xffffffe0(%ebp),%eax
  1025fb:	89 45 f4             	mov    %eax,0xfffffff4(%ebp)
    memmove(dst, bp->data + off%BSIZE, m);
  1025fe:	8b 55 f8             	mov    0xfffffff8(%ebp),%edx
  102601:	83 c2 18             	add    $0x18,%edx
  102604:	8b 45 10             	mov    0x10(%ebp),%eax
  102607:	25 ff 01 00 00       	and    $0x1ff,%eax
  10260c:	01 c2                	add    %eax,%edx
  10260e:	8b 45 f4             	mov    0xfffffff4(%ebp),%eax
  102611:	89 44 24 08          	mov    %eax,0x8(%esp)
  102615:	89 54 24 04          	mov    %edx,0x4(%esp)
  102619:	8b 45 0c             	mov    0xc(%ebp),%eax
  10261c:	89 04 24             	mov    %eax,(%esp)
  10261f:	e8 6c 39 00 00       	call   105f90 <memmove>
    brelse(bp);
  102624:	8b 45 f8             	mov    0xfffffff8(%ebp),%eax
  102627:	89 04 24             	mov    %eax,(%esp)
  10262a:	e8 d1 db ff ff       	call   100200 <brelse>
  10262f:	8b 45 f4             	mov    0xfffffff4(%ebp),%eax
  102632:	01 45 f0             	add    %eax,0xfffffff0(%ebp)
  102635:	8b 45 f4             	mov    0xfffffff4(%ebp),%eax
  102638:	01 45 10             	add    %eax,0x10(%ebp)
  10263b:	8b 45 f4             	mov    0xfffffff4(%ebp),%eax
  10263e:	01 45 0c             	add    %eax,0xc(%ebp)
  102641:	8b 45 f0             	mov    0xfffffff0(%ebp),%eax
  102644:	3b 45 14             	cmp    0x14(%ebp),%eax
  102647:	0f 82 48 ff ff ff    	jb     102595 <readi+0xc5>
  }
  return n;
  10264d:	8b 5d 14             	mov    0x14(%ebp),%ebx
  102650:	89 5d e4             	mov    %ebx,0xffffffe4(%ebp)
  102653:	8b 45 e4             	mov    0xffffffe4(%ebp),%eax
}
  102656:	83 c4 34             	add    $0x34,%esp
  102659:	5b                   	pop    %ebx
  10265a:	5d                   	pop    %ebp
  10265b:	c3                   	ret    
  10265c:	8d 74 26 00          	lea    0x0(%esi),%esi

00102660 <writei>:

// Write data to inode.
int
writei(struct inode *ip, char *src, uint off, uint n)
{
  102660:	55                   	push   %ebp
  102661:	89 e5                	mov    %esp,%ebp
  102663:	53                   	push   %ebx
  102664:	83 ec 34             	sub    $0x34,%esp
  uint tot, m;
  struct buf *bp;

  if(ip->type == T_DEV){
  102667:	8b 45 08             	mov    0x8(%ebp),%eax
  10266a:	0f b7 40 10          	movzwl 0x10(%eax),%eax
  10266e:	66 83 f8 03          	cmp    $0x3,%ax
  102672:	75 65                	jne    1026d9 <writei+0x79>
    if(ip->major < 0 || ip->major >= NDEV || !devsw[ip->major].write)
  102674:	8b 45 08             	mov    0x8(%ebp),%eax
  102677:	0f b7 40 12          	movzwl 0x12(%eax),%eax
  10267b:	66 85 c0             	test   %ax,%ax
  10267e:	78 20                	js     1026a0 <writei+0x40>
  102680:	8b 45 08             	mov    0x8(%ebp),%eax
  102683:	0f b7 40 12          	movzwl 0x12(%eax),%eax
  102687:	66 83 f8 09          	cmp    $0x9,%ax
  10268b:	7f 13                	jg     1026a0 <writei+0x40>
  10268d:	8b 45 08             	mov    0x8(%ebp),%eax
  102690:	0f b7 40 12          	movzwl 0x12(%eax),%eax
  102694:	98                   	cwtl   
  102695:	8b 04 c5 84 bb 13 00 	mov    0x13bb84(,%eax,8),%eax
  10269c:	85 c0                	test   %eax,%eax
  10269e:	75 0c                	jne    1026ac <writei+0x4c>
      return -1;
  1026a0:	c7 45 e4 ff ff ff ff 	movl   $0xffffffff,0xffffffe4(%ebp)
  1026a7:	e9 56 01 00 00       	jmp    102802 <writei+0x1a2>
    return devsw[ip->major].write(ip, src, n);
  1026ac:	8b 45 08             	mov    0x8(%ebp),%eax
  1026af:	0f b7 40 12          	movzwl 0x12(%eax),%eax
  1026b3:	98                   	cwtl   
  1026b4:	8b 14 c5 84 bb 13 00 	mov    0x13bb84(,%eax,8),%edx
  1026bb:	8b 45 14             	mov    0x14(%ebp),%eax
  1026be:	89 44 24 08          	mov    %eax,0x8(%esp)
  1026c2:	8b 45 0c             	mov    0xc(%ebp),%eax
  1026c5:	89 44 24 04          	mov    %eax,0x4(%esp)
  1026c9:	8b 45 08             	mov    0x8(%ebp),%eax
  1026cc:	89 04 24             	mov    %eax,(%esp)
  1026cf:	ff d2                	call   *%edx
  1026d1:	89 45 e4             	mov    %eax,0xffffffe4(%ebp)
  1026d4:	e9 29 01 00 00       	jmp    102802 <writei+0x1a2>
  }

  if(off + n < off)
  1026d9:	8b 45 14             	mov    0x14(%ebp),%eax
  1026dc:	03 45 10             	add    0x10(%ebp),%eax
  1026df:	3b 45 10             	cmp    0x10(%ebp),%eax
  1026e2:	73 0c                	jae    1026f0 <writei+0x90>
    return -1;
  1026e4:	c7 45 e4 ff ff ff ff 	movl   $0xffffffff,0xffffffe4(%ebp)
  1026eb:	e9 12 01 00 00       	jmp    102802 <writei+0x1a2>
  if(off + n > MAXFILE*BSIZE)
  1026f0:	8b 45 14             	mov    0x14(%ebp),%eax
  1026f3:	03 45 10             	add    0x10(%ebp),%eax
  1026f6:	3d 00 18 01 00       	cmp    $0x11800,%eax
  1026fb:	76 0b                	jbe    102708 <writei+0xa8>
    n = MAXFILE*BSIZE - off;
  1026fd:	b8 00 18 01 00       	mov    $0x11800,%eax
  102702:	2b 45 10             	sub    0x10(%ebp),%eax
  102705:	89 45 14             	mov    %eax,0x14(%ebp)

  for(tot=0; tot<n; tot+=m, off+=m, src+=m){
  102708:	c7 45 f0 00 00 00 00 	movl   $0x0,0xfffffff0(%ebp)
  10270f:	e9 b7 00 00 00       	jmp    1027cb <writei+0x16b>
    bp = bread(ip->dev, bmap(ip, off/BSIZE, 1));
  102714:	8b 45 10             	mov    0x10(%ebp),%eax
  102717:	c1 e8 09             	shr    $0x9,%eax
  10271a:	c7 44 24 08 01 00 00 	movl   $0x1,0x8(%esp)
  102721:	00 
  102722:	89 44 24 04          	mov    %eax,0x4(%esp)
  102726:	8b 45 08             	mov    0x8(%ebp),%eax
  102729:	89 04 24             	mov    %eax,(%esp)
  10272c:	e8 0f fb ff ff       	call   102240 <bmap>
  102731:	89 c2                	mov    %eax,%edx
  102733:	8b 45 08             	mov    0x8(%ebp),%eax
  102736:	8b 00                	mov    (%eax),%eax
  102738:	89 54 24 04          	mov    %edx,0x4(%esp)
  10273c:	89 04 24             	mov    %eax,(%esp)
  10273f:	e8 3c da ff ff       	call   100180 <bread>
  102744:	89 45 f8             	mov    %eax,0xfffffff8(%ebp)
    m = min(n - tot, BSIZE - off%BSIZE);
  102747:	8b 55 10             	mov    0x10(%ebp),%edx
  10274a:	81 e2 ff 01 00 00    	and    $0x1ff,%edx
  102750:	b8 00 02 00 00       	mov    $0x200,%eax
  102755:	89 c1                	mov    %eax,%ecx
  102757:	29 d1                	sub    %edx,%ecx
  102759:	8b 55 f0             	mov    0xfffffff0(%ebp),%edx
  10275c:	8b 45 14             	mov    0x14(%ebp),%eax
  10275f:	89 c3                	mov    %eax,%ebx
  102761:	29 d3                	sub    %edx,%ebx
  102763:	89 5d e8             	mov    %ebx,0xffffffe8(%ebp)
  102766:	89 4d e0             	mov    %ecx,0xffffffe0(%ebp)
  102769:	8b 45 e8             	mov    0xffffffe8(%ebp),%eax
  10276c:	39 45 e0             	cmp    %eax,0xffffffe0(%ebp)
  10276f:	76 06                	jbe    102777 <writei+0x117>
  102771:	8b 5d e8             	mov    0xffffffe8(%ebp),%ebx
  102774:	89 5d e0             	mov    %ebx,0xffffffe0(%ebp)
  102777:	8b 45 e0             	mov    0xffffffe0(%ebp),%eax
  10277a:	89 45 f4             	mov    %eax,0xfffffff4(%ebp)
    memmove(bp->data + off%BSIZE, src, m);
  10277d:	8b 55 f8             	mov    0xfffffff8(%ebp),%edx
  102780:	83 c2 18             	add    $0x18,%edx
  102783:	8b 45 10             	mov    0x10(%ebp),%eax
  102786:	25 ff 01 00 00       	and    $0x1ff,%eax
  10278b:	01 c2                	add    %eax,%edx
  10278d:	8b 45 f4             	mov    0xfffffff4(%ebp),%eax
  102790:	89 44 24 08          	mov    %eax,0x8(%esp)
  102794:	8b 45 0c             	mov    0xc(%ebp),%eax
  102797:	89 44 24 04          	mov    %eax,0x4(%esp)
  10279b:	89 14 24             	mov    %edx,(%esp)
  10279e:	e8 ed 37 00 00       	call   105f90 <memmove>
    bwrite(bp);
  1027a3:	8b 45 f8             	mov    0xfffffff8(%ebp),%eax
  1027a6:	89 04 24             	mov    %eax,(%esp)
  1027a9:	e8 12 da ff ff       	call   1001c0 <bwrite>
    brelse(bp);
  1027ae:	8b 45 f8             	mov    0xfffffff8(%ebp),%eax
  1027b1:	89 04 24             	mov    %eax,(%esp)
  1027b4:	e8 47 da ff ff       	call   100200 <brelse>
  1027b9:	8b 45 f4             	mov    0xfffffff4(%ebp),%eax
  1027bc:	01 45 f0             	add    %eax,0xfffffff0(%ebp)
  1027bf:	8b 45 f4             	mov    0xfffffff4(%ebp),%eax
  1027c2:	01 45 10             	add    %eax,0x10(%ebp)
  1027c5:	8b 45 f4             	mov    0xfffffff4(%ebp),%eax
  1027c8:	01 45 0c             	add    %eax,0xc(%ebp)
  1027cb:	8b 45 f0             	mov    0xfffffff0(%ebp),%eax
  1027ce:	3b 45 14             	cmp    0x14(%ebp),%eax
  1027d1:	0f 82 3d ff ff ff    	jb     102714 <writei+0xb4>
  }

  if(n > 0 && off > ip->size){
  1027d7:	83 7d 14 00          	cmpl   $0x0,0x14(%ebp)
  1027db:	74 1f                	je     1027fc <writei+0x19c>
  1027dd:	8b 45 08             	mov    0x8(%ebp),%eax
  1027e0:	8b 40 18             	mov    0x18(%eax),%eax
  1027e3:	3b 45 10             	cmp    0x10(%ebp),%eax
  1027e6:	73 14                	jae    1027fc <writei+0x19c>
    ip->size = off;
  1027e8:	8b 45 08             	mov    0x8(%ebp),%eax
  1027eb:	8b 55 10             	mov    0x10(%ebp),%edx
  1027ee:	89 50 18             	mov    %edx,0x18(%eax)
    iupdate(ip);
  1027f1:	8b 45 08             	mov    0x8(%ebp),%eax
  1027f4:	89 04 24             	mov    %eax,(%esp)
  1027f7:	e8 84 f9 ff ff       	call   102180 <iupdate>
  }
  return n;
  1027fc:	8b 5d 14             	mov    0x14(%ebp),%ebx
  1027ff:	89 5d e4             	mov    %ebx,0xffffffe4(%ebp)
  102802:	8b 45 e4             	mov    0xffffffe4(%ebp),%eax
}
  102805:	83 c4 34             	add    $0x34,%esp
  102808:	5b                   	pop    %ebx
  102809:	5d                   	pop    %ebp
  10280a:	c3                   	ret    
  10280b:	90                   	nop    
  10280c:	8d 74 26 00          	lea    0x0(%esi),%esi

00102810 <namecmp>:

// Directories

int
namecmp(const char *s, const char *t)
{
  102810:	55                   	push   %ebp
  102811:	89 e5                	mov    %esp,%ebp
  102813:	83 ec 18             	sub    $0x18,%esp
  return strncmp(s, t, DIRSIZ);
  102816:	c7 44 24 08 0e 00 00 	movl   $0xe,0x8(%esp)
  10281d:	00 
  10281e:	8b 45 0c             	mov    0xc(%ebp),%eax
  102821:	89 44 24 04          	mov    %eax,0x4(%esp)
  102825:	8b 45 08             	mov    0x8(%ebp),%eax
  102828:	89 04 24             	mov    %eax,(%esp)
  10282b:	e8 e0 37 00 00       	call   106010 <strncmp>
}
  102830:	c9                   	leave  
  102831:	c3                   	ret    
  102832:	8d b4 26 00 00 00 00 	lea    0x0(%esi),%esi
  102839:	8d bc 27 00 00 00 00 	lea    0x0(%edi),%edi

00102840 <dirlookup>:

// Look for a directory entry in a directory.
// If found, set *poff to byte offset of entry.
// Caller must have already locked dp.
struct inode*
dirlookup(struct inode *dp, char *name, uint *poff)
{
  102840:	55                   	push   %ebp
  102841:	89 e5                	mov    %esp,%ebp
  102843:	83 ec 28             	sub    $0x28,%esp
  uint off, inum;
  struct buf *bp;
  struct dirent *de;

  if(dp->type != T_DIR)
  102846:	8b 45 08             	mov    0x8(%ebp),%eax
  102849:	0f b7 40 10          	movzwl 0x10(%eax),%eax
  10284d:	66 83 f8 01          	cmp    $0x1,%ax
  102851:	74 0c                	je     10285f <dirlookup+0x1f>
    panic("dirlookup not DIR");
  102853:	c7 04 24 80 a4 11 00 	movl   $0x11a480,(%esp)
  10285a:	e8 b1 e7 ff ff       	call   101010 <panic>

  for(off = 0; off < dp->size; off += BSIZE){
  10285f:	c7 45 f0 00 00 00 00 	movl   $0x0,0xfffffff0(%ebp)
  102866:	e9 e0 00 00 00       	jmp    10294b <dirlookup+0x10b>
    bp = bread(dp->dev, bmap(dp, off / BSIZE, 0));
  10286b:	8b 45 f0             	mov    0xfffffff0(%ebp),%eax
  10286e:	c1 e8 09             	shr    $0x9,%eax
  102871:	c7 44 24 08 00 00 00 	movl   $0x0,0x8(%esp)
  102878:	00 
  102879:	89 44 24 04          	mov    %eax,0x4(%esp)
  10287d:	8b 45 08             	mov    0x8(%ebp),%eax
  102880:	89 04 24             	mov    %eax,(%esp)
  102883:	e8 b8 f9 ff ff       	call   102240 <bmap>
  102888:	89 c2                	mov    %eax,%edx
  10288a:	8b 45 08             	mov    0x8(%ebp),%eax
  10288d:	8b 00                	mov    (%eax),%eax
  10288f:	89 54 24 04          	mov    %edx,0x4(%esp)
  102893:	89 04 24             	mov    %eax,(%esp)
  102896:	e8 e5 d8 ff ff       	call   100180 <bread>
  10289b:	89 45 f8             	mov    %eax,0xfffffff8(%ebp)
    for(de = (struct dirent*)bp->data;
  10289e:	8b 45 f8             	mov    0xfffffff8(%ebp),%eax
  1028a1:	83 c0 18             	add    $0x18,%eax
  1028a4:	89 45 fc             	mov    %eax,0xfffffffc(%ebp)
        de < (struct dirent*)(bp->data + BSIZE);
  1028a7:	eb 7c                	jmp    102925 <dirlookup+0xe5>
        de++){
      if(de->inum == 0)
  1028a9:	8b 45 fc             	mov    0xfffffffc(%ebp),%eax
  1028ac:	0f b7 00             	movzwl (%eax),%eax
  1028af:	66 85 c0             	test   %ax,%ax
  1028b2:	74 6d                	je     102921 <dirlookup+0xe1>
        continue;
      if(namecmp(name, de->name) == 0){
  1028b4:	8b 45 fc             	mov    0xfffffffc(%ebp),%eax
  1028b7:	83 c0 02             	add    $0x2,%eax
  1028ba:	89 44 24 04          	mov    %eax,0x4(%esp)
  1028be:	8b 45 0c             	mov    0xc(%ebp),%eax
  1028c1:	89 04 24             	mov    %eax,(%esp)
  1028c4:	e8 47 ff ff ff       	call   102810 <namecmp>
  1028c9:	85 c0                	test   %eax,%eax
  1028cb:	75 54                	jne    102921 <dirlookup+0xe1>
        // entry matches path element
        if(poff)
  1028cd:	83 7d 10 00          	cmpl   $0x0,0x10(%ebp)
  1028d1:	74 1e                	je     1028f1 <dirlookup+0xb1>
          *poff = off + (uchar*)de - bp->data;
  1028d3:	8b 55 fc             	mov    0xfffffffc(%ebp),%edx
  1028d6:	8b 45 f0             	mov    0xfffffff0(%ebp),%eax
  1028d9:	8d 04 02             	lea    (%edx,%eax,1),%eax
  1028dc:	89 c2                	mov    %eax,%edx
  1028de:	8b 45 f8             	mov    0xfffffff8(%ebp),%eax
  1028e1:	83 c0 18             	add    $0x18,%eax
  1028e4:	89 d1                	mov    %edx,%ecx
  1028e6:	29 c1                	sub    %eax,%ecx
  1028e8:	89 c8                	mov    %ecx,%eax
  1028ea:	89 c2                	mov    %eax,%edx
  1028ec:	8b 45 10             	mov    0x10(%ebp),%eax
  1028ef:	89 10                	mov    %edx,(%eax)
        inum = de->inum;
  1028f1:	8b 45 fc             	mov    0xfffffffc(%ebp),%eax
  1028f4:	0f b7 00             	movzwl (%eax),%eax
  1028f7:	0f b7 c0             	movzwl %ax,%eax
  1028fa:	89 45 f4             	mov    %eax,0xfffffff4(%ebp)
        brelse(bp);
  1028fd:	8b 45 f8             	mov    0xfffffff8(%ebp),%eax
  102900:	89 04 24             	mov    %eax,(%esp)
  102903:	e8 f8 d8 ff ff       	call   100200 <brelse>
        return iget(dp->dev, inum);
  102908:	8b 45 08             	mov    0x8(%ebp),%eax
  10290b:	8b 10                	mov    (%eax),%edx
  10290d:	8b 45 f4             	mov    0xfffffff4(%ebp),%eax
  102910:	89 44 24 04          	mov    %eax,0x4(%esp)
  102914:	89 14 24             	mov    %edx,(%esp)
  102917:	e8 84 f3 ff ff       	call   101ca0 <iget>
  10291c:	89 45 ec             	mov    %eax,0xffffffec(%ebp)
  10291f:	eb 40                	jmp    102961 <dirlookup+0x121>
  102921:	83 45 fc 10          	addl   $0x10,0xfffffffc(%ebp)
  102925:	8b 45 f8             	mov    0xfffffff8(%ebp),%eax
  102928:	83 c0 18             	add    $0x18,%eax
  10292b:	05 00 02 00 00       	add    $0x200,%eax
  102930:	3b 45 fc             	cmp    0xfffffffc(%ebp),%eax
  102933:	0f 87 70 ff ff ff    	ja     1028a9 <dirlookup+0x69>
      }
    }
    brelse(bp);
  102939:	8b 45 f8             	mov    0xfffffff8(%ebp),%eax
  10293c:	89 04 24             	mov    %eax,(%esp)
  10293f:	e8 bc d8 ff ff       	call   100200 <brelse>
  102944:	81 45 f0 00 02 00 00 	addl   $0x200,0xfffffff0(%ebp)
  10294b:	8b 45 08             	mov    0x8(%ebp),%eax
  10294e:	8b 40 18             	mov    0x18(%eax),%eax
  102951:	3b 45 f0             	cmp    0xfffffff0(%ebp),%eax
  102954:	0f 87 11 ff ff ff    	ja     10286b <dirlookup+0x2b>
  }
  return 0;
  10295a:	c7 45 ec 00 00 00 00 	movl   $0x0,0xffffffec(%ebp)
  102961:	8b 45 ec             	mov    0xffffffec(%ebp),%eax
}
  102964:	c9                   	leave  
  102965:	c3                   	ret    
  102966:	8d 76 00             	lea    0x0(%esi),%esi
  102969:	8d bc 27 00 00 00 00 	lea    0x0(%edi),%edi

00102970 <dirlink>:

// Write a new directory entry (name, ino) into the directory dp.
int
dirlink(struct inode *dp, char *name, uint ino)
{
  102970:	55                   	push   %ebp
  102971:	89 e5                	mov    %esp,%ebp
  102973:	83 ec 38             	sub    $0x38,%esp
  int off;
  struct dirent de;
  struct inode *ip;

  // Check that name is not present.
  if((ip = dirlookup(dp, name, 0)) != 0){
  102976:	c7 44 24 08 00 00 00 	movl   $0x0,0x8(%esp)
  10297d:	00 
  10297e:	8b 45 0c             	mov    0xc(%ebp),%eax
  102981:	89 44 24 04          	mov    %eax,0x4(%esp)
  102985:	8b 45 08             	mov    0x8(%ebp),%eax
  102988:	89 04 24             	mov    %eax,(%esp)
  10298b:	e8 b0 fe ff ff       	call   102840 <dirlookup>
  102990:	89 45 fc             	mov    %eax,0xfffffffc(%ebp)
  102993:	83 7d fc 00          	cmpl   $0x0,0xfffffffc(%ebp)
  102997:	74 17                	je     1029b0 <dirlink+0x40>
    iput(ip);
  102999:	8b 45 fc             	mov    0xfffffffc(%ebp),%eax
  10299c:	89 04 24             	mov    %eax,(%esp)
  10299f:	e8 ec f5 ff ff       	call   101f90 <iput>
    return -1;
  1029a4:	c7 45 dc ff ff ff ff 	movl   $0xffffffff,0xffffffdc(%ebp)
  1029ab:	e9 b7 00 00 00       	jmp    102a67 <dirlink+0xf7>
  }

  // Look for an empty dirent.
  for(off = 0; off < dp->size; off += sizeof(de)){
  1029b0:	c7 45 f8 00 00 00 00 	movl   $0x0,0xfffffff8(%ebp)
  1029b7:	eb 44                	jmp    1029fd <dirlink+0x8d>
    if(readi(dp, (char*)&de, off, sizeof(de)) != sizeof(de))
  1029b9:	8b 45 f8             	mov    0xfffffff8(%ebp),%eax
  1029bc:	8d 55 e8             	lea    0xffffffe8(%ebp),%edx
  1029bf:	c7 44 24 0c 10 00 00 	movl   $0x10,0xc(%esp)
  1029c6:	00 
  1029c7:	89 44 24 08          	mov    %eax,0x8(%esp)
  1029cb:	89 54 24 04          	mov    %edx,0x4(%esp)
  1029cf:	8b 45 08             	mov    0x8(%ebp),%eax
  1029d2:	89 04 24             	mov    %eax,(%esp)
  1029d5:	e8 f6 fa ff ff       	call   1024d0 <readi>
  1029da:	83 f8 10             	cmp    $0x10,%eax
  1029dd:	74 0c                	je     1029eb <dirlink+0x7b>
      panic("dirlink read");
  1029df:	c7 04 24 92 a4 11 00 	movl   $0x11a492,(%esp)
  1029e6:	e8 25 e6 ff ff       	call   101010 <panic>
    if(de.inum == 0)
  1029eb:	0f b7 45 e8          	movzwl 0xffffffe8(%ebp),%eax
  1029ef:	66 85 c0             	test   %ax,%ax
  1029f2:	74 16                	je     102a0a <dirlink+0x9a>
  1029f4:	8b 45 f8             	mov    0xfffffff8(%ebp),%eax
  1029f7:	83 c0 10             	add    $0x10,%eax
  1029fa:	89 45 f8             	mov    %eax,0xfffffff8(%ebp)
  1029fd:	8b 45 f8             	mov    0xfffffff8(%ebp),%eax
  102a00:	8b 55 08             	mov    0x8(%ebp),%edx
  102a03:	8b 52 18             	mov    0x18(%edx),%edx
  102a06:	39 d0                	cmp    %edx,%eax
  102a08:	72 af                	jb     1029b9 <dirlink+0x49>
      break;
  }

  strncpy(de.name, name, DIRSIZ);
  102a0a:	c7 44 24 08 0e 00 00 	movl   $0xe,0x8(%esp)
  102a11:	00 
  102a12:	8b 45 0c             	mov    0xc(%ebp),%eax
  102a15:	89 44 24 04          	mov    %eax,0x4(%esp)
  102a19:	8d 45 e8             	lea    0xffffffe8(%ebp),%eax
  102a1c:	83 c0 02             	add    $0x2,%eax
  102a1f:	89 04 24             	mov    %eax,(%esp)
  102a22:	e8 59 36 00 00       	call   106080 <strncpy>
  de.inum = ino;
  102a27:	8b 45 10             	mov    0x10(%ebp),%eax
  102a2a:	66 89 45 e8          	mov    %ax,0xffffffe8(%ebp)
  if(writei(dp, (char*)&de, off, sizeof(de)) != sizeof(de))
  102a2e:	8b 45 f8             	mov    0xfffffff8(%ebp),%eax
  102a31:	8d 55 e8             	lea    0xffffffe8(%ebp),%edx
  102a34:	c7 44 24 0c 10 00 00 	movl   $0x10,0xc(%esp)
  102a3b:	00 
  102a3c:	89 44 24 08          	mov    %eax,0x8(%esp)
  102a40:	89 54 24 04          	mov    %edx,0x4(%esp)
  102a44:	8b 45 08             	mov    0x8(%ebp),%eax
  102a47:	89 04 24             	mov    %eax,(%esp)
  102a4a:	e8 11 fc ff ff       	call   102660 <writei>
  102a4f:	83 f8 10             	cmp    $0x10,%eax
  102a52:	74 0c                	je     102a60 <dirlink+0xf0>
    panic("dirlink");
  102a54:	c7 04 24 9f a4 11 00 	movl   $0x11a49f,(%esp)
  102a5b:	e8 b0 e5 ff ff       	call   101010 <panic>
  
  return 0;
  102a60:	c7 45 dc 00 00 00 00 	movl   $0x0,0xffffffdc(%ebp)
  102a67:	8b 45 dc             	mov    0xffffffdc(%ebp),%eax
}
  102a6a:	c9                   	leave  
  102a6b:	c3                   	ret    
  102a6c:	8d 74 26 00          	lea    0x0(%esi),%esi

00102a70 <skipelem>:

// Paths

// Copy the next path element from path into name.
// Return a pointer to the element following the copied one.
// The returned path has no leading slashes,
// so the caller can check *path=='\0' to see if the name is the last one.
// If no name to remove, return 0.
//
// Examples:
//   skipelem("a/bb/c", name) = "bb/c", setting name = "a"
//   skipelem("///a//bb", name) = "bb", setting name = "a"
//   skipelem("", name) = skipelem("////", name) = 0
//
static char*
skipelem(char *path, char *name)
{
  102a70:	55                   	push   %ebp
  102a71:	89 e5                	mov    %esp,%ebp
  102a73:	83 ec 28             	sub    $0x28,%esp
  char *s;
  int len;

  while(*path == '/')
  102a76:	eb 04                	jmp    102a7c <skipelem+0xc>
    path++;
  102a78:	83 45 08 01          	addl   $0x1,0x8(%ebp)
  102a7c:	8b 45 08             	mov    0x8(%ebp),%eax
  102a7f:	0f b6 00             	movzbl (%eax),%eax
  102a82:	3c 2f                	cmp    $0x2f,%al
  102a84:	74 f2                	je     102a78 <skipelem+0x8>
  if(*path == 0)
  102a86:	8b 45 08             	mov    0x8(%ebp),%eax
  102a89:	0f b6 00             	movzbl (%eax),%eax
  102a8c:	84 c0                	test   %al,%al
  102a8e:	75 0c                	jne    102a9c <skipelem+0x2c>
    return 0;
  102a90:	c7 45 ec 00 00 00 00 	movl   $0x0,0xffffffec(%ebp)
  102a97:	e9 85 00 00 00       	jmp    102b21 <skipelem+0xb1>
  s = path;
  102a9c:	8b 45 08             	mov    0x8(%ebp),%eax
  102a9f:	89 45 f8             	mov    %eax,0xfffffff8(%ebp)
  while(*path != '/' && *path != 0)
  102aa2:	eb 04                	jmp    102aa8 <skipelem+0x38>
    path++;
  102aa4:	83 45 08 01          	addl   $0x1,0x8(%ebp)
  102aa8:	8b 45 08             	mov    0x8(%ebp),%eax
  102aab:	0f b6 00             	movzbl (%eax),%eax
  102aae:	3c 2f                	cmp    $0x2f,%al
  102ab0:	74 0a                	je     102abc <skipelem+0x4c>
  102ab2:	8b 45 08             	mov    0x8(%ebp),%eax
  102ab5:	0f b6 00             	movzbl (%eax),%eax
  102ab8:	84 c0                	test   %al,%al
  102aba:	75 e8                	jne    102aa4 <skipelem+0x34>
  len = path - s;
  102abc:	8b 45 08             	mov    0x8(%ebp),%eax
  102abf:	8b 55 f8             	mov    0xfffffff8(%ebp),%edx
  102ac2:	29 d0                	sub    %edx,%eax
  102ac4:	89 45 fc             	mov    %eax,0xfffffffc(%ebp)
  if(len >= DIRSIZ)
  102ac7:	83 7d fc 0d          	cmpl   $0xd,0xfffffffc(%ebp)
  102acb:	7e 1c                	jle    102ae9 <skipelem+0x79>
    memmove(name, s, DIRSIZ);
  102acd:	c7 44 24 08 0e 00 00 	movl   $0xe,0x8(%esp)
  102ad4:	00 
  102ad5:	8b 45 f8             	mov    0xfffffff8(%ebp),%eax
  102ad8:	89 44 24 04          	mov    %eax,0x4(%esp)
  102adc:	8b 45 0c             	mov    0xc(%ebp),%eax
  102adf:	89 04 24             	mov    %eax,(%esp)
  102ae2:	e8 a9 34 00 00       	call   105f90 <memmove>
  102ae7:	eb 28                	jmp    102b11 <skipelem+0xa1>
  else {
    memmove(name, s, len);
  102ae9:	8b 45 fc             	mov    0xfffffffc(%ebp),%eax
  102aec:	89 44 24 08          	mov    %eax,0x8(%esp)
  102af0:	8b 45 f8             	mov    0xfffffff8(%ebp),%eax
  102af3:	89 44 24 04          	mov    %eax,0x4(%esp)
  102af7:	8b 45 0c             	mov    0xc(%ebp),%eax
  102afa:	89 04 24             	mov    %eax,(%esp)
  102afd:	e8 8e 34 00 00       	call   105f90 <memmove>
    name[len] = 0;
  102b02:	8b 45 fc             	mov    0xfffffffc(%ebp),%eax
  102b05:	03 45 0c             	add    0xc(%ebp),%eax
  102b08:	c6 00 00             	movb   $0x0,(%eax)
  }
  while(*path == '/')
  102b0b:	eb 04                	jmp    102b11 <skipelem+0xa1>
    path++;
  102b0d:	83 45 08 01          	addl   $0x1,0x8(%ebp)
  102b11:	8b 45 08             	mov    0x8(%ebp),%eax
  102b14:	0f b6 00             	movzbl (%eax),%eax
  102b17:	3c 2f                	cmp    $0x2f,%al
  102b19:	74 f2                	je     102b0d <skipelem+0x9d>
  return path;
  102b1b:	8b 45 08             	mov    0x8(%ebp),%eax
  102b1e:	89 45 ec             	mov    %eax,0xffffffec(%ebp)
  102b21:	8b 45 ec             	mov    0xffffffec(%ebp),%eax
}
  102b24:	c9                   	leave  
  102b25:	c3                   	ret    
  102b26:	8d 76 00             	lea    0x0(%esi),%esi
  102b29:	8d bc 27 00 00 00 00 	lea    0x0(%edi),%edi

00102b30 <_namei>:

// Look up and return the inode for a path name.
// If parent != 0, return the inode for the parent and copy the final
// path element into name, which must have room for DIRSIZ bytes.
static struct inode*
_namei(char *path, int parent, char *name)
{
  102b30:	55                   	push   %ebp
  102b31:	89 e5                	mov    %esp,%ebp
  102b33:	83 ec 28             	sub    $0x28,%esp
  struct inode *ip, *next;

//  cprintf("XXX _namei %s\n", path);
  if(*path == '/')
  102b36:	8b 45 08             	mov    0x8(%ebp),%eax
  102b39:	0f b6 00             	movzbl (%eax),%eax
  102b3c:	3c 2f                	cmp    $0x2f,%al
  102b3e:	75 1c                	jne    102b5c <_namei+0x2c>
    ip = iget(ROOTDEV, 1);
  102b40:	c7 44 24 04 01 00 00 	movl   $0x1,0x4(%esp)
  102b47:	00 
  102b48:	c7 04 24 01 00 00 00 	movl   $0x1,(%esp)
  102b4f:	e8 4c f1 ff ff       	call   101ca0 <iget>
  102b54:	89 45 f8             	mov    %eax,0xfffffff8(%ebp)
  102b57:	e9 bc 00 00 00       	jmp    102c18 <_namei+0xe8>
  else
    ip = idup(cp->cwd);
  102b5c:	e8 5f 0d 00 00       	call   1038c0 <cpu>
  102b61:	8b 04 85 20 0c 14 00 	mov    0x140c20(,%eax,4),%eax
  102b68:	8b 40 60             	mov    0x60(%eax),%eax
  102b6b:	89 04 24             	mov    %eax,(%esp)
  102b6e:	e8 0d f2 ff ff       	call   101d80 <idup>
  102b73:	89 45 f8             	mov    %eax,0xfffffff8(%ebp)

  while((path = skipelem(path, name)) != 0){
  102b76:	e9 9d 00 00 00       	jmp    102c18 <_namei+0xe8>
//    cprintf("XXX ready to ilock\n");
    ilock(ip);
  102b7b:	8b 45 f8             	mov    0xfffffff8(%ebp),%eax
  102b7e:	89 04 24             	mov    %eax,(%esp)
  102b81:	e8 3a f2 ff ff       	call   101dc0 <ilock>
//    cprintf("XXX here %d\n", ip->type);
    if(ip->type != T_DIR){
  102b86:	8b 45 f8             	mov    0xfffffff8(%ebp),%eax
  102b89:	0f b7 40 10          	movzwl 0x10(%eax),%eax
  102b8d:	66 83 f8 01          	cmp    $0x1,%ax
  102b91:	74 17                	je     102baa <_namei+0x7a>
      iunlockput(ip);
  102b93:	8b 45 f8             	mov    0xfffffff8(%ebp),%eax
  102b96:	89 04 24             	mov    %eax,(%esp)
  102b99:	e8 d2 f4 ff ff       	call   102070 <iunlockput>
      return 0;
  102b9e:	c7 45 ec 00 00 00 00 	movl   $0x0,0xffffffec(%ebp)
  102ba5:	e9 ad 00 00 00       	jmp    102c57 <_namei+0x127>
    }
    if(parent && *path == '\0'){
  102baa:	83 7d 0c 00          	cmpl   $0x0,0xc(%ebp)
  102bae:	74 20                	je     102bd0 <_namei+0xa0>
  102bb0:	8b 45 08             	mov    0x8(%ebp),%eax
  102bb3:	0f b6 00             	movzbl (%eax),%eax
  102bb6:	84 c0                	test   %al,%al
  102bb8:	75 16                	jne    102bd0 <_namei+0xa0>
      // Stop one level early.
      iunlock(ip);
  102bba:	8b 45 f8             	mov    0xfffffff8(%ebp),%eax
  102bbd:	89 04 24             	mov    %eax,(%esp)
  102bc0:	e8 5b f3 ff ff       	call   101f20 <iunlock>
      return ip;
  102bc5:	8b 45 f8             	mov    0xfffffff8(%ebp),%eax
  102bc8:	89 45 ec             	mov    %eax,0xffffffec(%ebp)
  102bcb:	e9 87 00 00 00       	jmp    102c57 <_namei+0x127>
    }
    if((next = dirlookup(ip, name, 0)) == 0){
  102bd0:	c7 44 24 08 00 00 00 	movl   $0x0,0x8(%esp)
  102bd7:	00 
  102bd8:	8b 45 10             	mov    0x10(%ebp),%eax
  102bdb:	89 44 24 04          	mov    %eax,0x4(%esp)
  102bdf:	8b 45 f8             	mov    0xfffffff8(%ebp),%eax
  102be2:	89 04 24             	mov    %eax,(%esp)
  102be5:	e8 56 fc ff ff       	call   102840 <dirlookup>
  102bea:	89 45 fc             	mov    %eax,0xfffffffc(%ebp)
  102bed:	83 7d fc 00          	cmpl   $0x0,0xfffffffc(%ebp)
  102bf1:	75 14                	jne    102c07 <_namei+0xd7>
      iunlockput(ip);
  102bf3:	8b 45 f8             	mov    0xfffffff8(%ebp),%eax
  102bf6:	89 04 24             	mov    %eax,(%esp)
  102bf9:	e8 72 f4 ff ff       	call   102070 <iunlockput>
      return 0;
  102bfe:	c7 45 ec 00 00 00 00 	movl   $0x0,0xffffffec(%ebp)
  102c05:	eb 50                	jmp    102c57 <_namei+0x127>
    }
    iunlockput(ip);
  102c07:	8b 45 f8             	mov    0xfffffff8(%ebp),%eax
  102c0a:	89 04 24             	mov    %eax,(%esp)
  102c0d:	e8 5e f4 ff ff       	call   102070 <iunlockput>
    ip = next;
  102c12:	8b 45 fc             	mov    0xfffffffc(%ebp),%eax
  102c15:	89 45 f8             	mov    %eax,0xfffffff8(%ebp)
  102c18:	8b 45 10             	mov    0x10(%ebp),%eax
  102c1b:	89 44 24 04          	mov    %eax,0x4(%esp)
  102c1f:	8b 45 08             	mov    0x8(%ebp),%eax
  102c22:	89 04 24             	mov    %eax,(%esp)
  102c25:	e8 46 fe ff ff       	call   102a70 <skipelem>
  102c2a:	89 45 08             	mov    %eax,0x8(%ebp)
  102c2d:	83 7d 08 00          	cmpl   $0x0,0x8(%ebp)
  102c31:	0f 85 44 ff ff ff    	jne    102b7b <_namei+0x4b>
  }
  if(parent){
  102c37:	83 7d 0c 00          	cmpl   $0x0,0xc(%ebp)
  102c3b:	74 14                	je     102c51 <_namei+0x121>
    iput(ip);
  102c3d:	8b 45 f8             	mov    0xfffffff8(%ebp),%eax
  102c40:	89 04 24             	mov    %eax,(%esp)
  102c43:	e8 48 f3 ff ff       	call   101f90 <iput>
    return 0;
  102c48:	c7 45 ec 00 00 00 00 	movl   $0x0,0xffffffec(%ebp)
  102c4f:	eb 06                	jmp    102c57 <_namei+0x127>
  }
  return ip;
  102c51:	8b 45 f8             	mov    0xfffffff8(%ebp),%eax
  102c54:	89 45 ec             	mov    %eax,0xffffffec(%ebp)
  102c57:	8b 45 ec             	mov    0xffffffec(%ebp),%eax
}
  102c5a:	c9                   	leave  
  102c5b:	c3                   	ret    
  102c5c:	8d 74 26 00          	lea    0x0(%esi),%esi

00102c60 <namei>:

struct inode*
namei(char *path)
{
  102c60:	55                   	push   %ebp
  102c61:	89 e5                	mov    %esp,%ebp
  102c63:	83 ec 28             	sub    $0x28,%esp
  char name[DIRSIZ];
  return _namei(path, 0, name);
  102c66:	8d 45 f2             	lea    0xfffffff2(%ebp),%eax
  102c69:	89 44 24 08          	mov    %eax,0x8(%esp)
  102c6d:	c7 44 24 04 00 00 00 	movl   $0x0,0x4(%esp)
  102c74:	00 
  102c75:	8b 45 08             	mov    0x8(%ebp),%eax
  102c78:	89 04 24             	mov    %eax,(%esp)
  102c7b:	e8 b0 fe ff ff       	call   102b30 <_namei>
}
  102c80:	c9                   	leave  
  102c81:	c3                   	ret    
  102c82:	8d b4 26 00 00 00 00 	lea    0x0(%esi),%esi
  102c89:	8d bc 27 00 00 00 00 	lea    0x0(%edi),%edi

00102c90 <nameiparent>:

struct inode*
nameiparent(char *path, char *name)
{
  102c90:	55                   	push   %ebp
  102c91:	89 e5                	mov    %esp,%ebp
  102c93:	83 ec 18             	sub    $0x18,%esp
  return _namei(path, 1, name);
  102c96:	8b 45 0c             	mov    0xc(%ebp),%eax
  102c99:	89 44 24 08          	mov    %eax,0x8(%esp)
  102c9d:	c7 44 24 04 01 00 00 	movl   $0x1,0x4(%esp)
  102ca4:	00 
  102ca5:	8b 45 08             	mov    0x8(%ebp),%eax
  102ca8:	89 04 24             	mov    %eax,(%esp)
  102cab:	e8 80 fe ff ff       	call   102b30 <_namei>
}
  102cb0:	c9                   	leave  
  102cb1:	c3                   	ret    
  102cb2:	90                   	nop    
  102cb3:	90                   	nop    
  102cb4:	90                   	nop    
  102cb5:	90                   	nop    
  102cb6:	90                   	nop    
  102cb7:	90                   	nop    
  102cb8:	90                   	nop    
  102cb9:	90                   	nop    
  102cba:	90                   	nop    
  102cbb:	90                   	nop    
  102cbc:	90                   	nop    
  102cbd:	90                   	nop    
  102cbe:	90                   	nop    
  102cbf:	90                   	nop    

00102cc0 <ide_wait_ready>:

// Wait for IDE disk to become ready.
static int
ide_wait_ready(int check_error)
{
  102cc0:	55                   	push   %ebp
  102cc1:	89 e5                	mov    %esp,%ebp
  102cc3:	83 ec 18             	sub    $0x18,%esp
  int r;

  while(((r = inb(0x1f7)) & IDE_BSY) || !(r & IDE_DRDY))
  102cc6:	c7 04 24 f7 01 00 00 	movl   $0x1f7,(%esp)
  102ccd:	e8 4e 00 00 00       	call   102d20 <inb>
  102cd2:	0f b6 c0             	movzbl %al,%eax
  102cd5:	89 45 fc             	mov    %eax,0xfffffffc(%ebp)
  102cd8:	8b 45 fc             	mov    0xfffffffc(%ebp),%eax
  102cdb:	25 80 00 00 00       	and    $0x80,%eax
  102ce0:	85 c0                	test   %eax,%eax
  102ce2:	75 e2                	jne    102cc6 <ide_wait_ready+0x6>
  102ce4:	8b 45 fc             	mov    0xfffffffc(%ebp),%eax
  102ce7:	83 e0 40             	and    $0x40,%eax
  102cea:	85 c0                	test   %eax,%eax
  102cec:	74 d8                	je     102cc6 <ide_wait_ready+0x6>
    ;
  if(check_error && (r & (IDE_DF|IDE_ERR)) != 0)
  102cee:	83 7d 08 00          	cmpl   $0x0,0x8(%ebp)
  102cf2:	74 13                	je     102d07 <ide_wait_ready+0x47>
  102cf4:	8b 45 fc             	mov    0xfffffffc(%ebp),%eax
  102cf7:	83 e0 21             	and    $0x21,%eax
  102cfa:	85 c0                	test   %eax,%eax
  102cfc:	74 09                	je     102d07 <ide_wait_ready+0x47>
    return -1;
  102cfe:	c7 45 ec ff ff ff ff 	movl   $0xffffffff,0xffffffec(%ebp)
  102d05:	eb 07                	jmp    102d0e <ide_wait_ready+0x4e>
  return 0;
  102d07:	c7 45 ec 00 00 00 00 	movl   $0x0,0xffffffec(%ebp)
  102d0e:	8b 45 ec             	mov    0xffffffec(%ebp),%eax
}
  102d11:	c9                   	leave  
  102d12:	c3                   	ret    
  102d13:	8d b6 00 00 00 00    	lea    0x0(%esi),%esi
  102d19:	8d bc 27 00 00 00 00 	lea    0x0(%edi),%edi

00102d20 <inb>:
// Routines to let C code use special x86 instructions.

static inline uchar
inb(ushort port)
{
  102d20:	55                   	push   %ebp
  102d21:	89 e5                	mov    %esp,%ebp
  102d23:	83 ec 14             	sub    $0x14,%esp
  102d26:	8b 45 08             	mov    0x8(%ebp),%eax
  102d29:	66 89 45 ec          	mov    %ax,0xffffffec(%ebp)
  uchar data;

  asm volatile("in %1,%0" : "=a" (data) : "d" (port));
  102d2d:	0f b7 55 ec          	movzwl 0xffffffec(%ebp),%edx
  102d31:	ec                   	in     (%dx),%al
  102d32:	88 45 ff             	mov    %al,0xffffffff(%ebp)
  return data;
  102d35:	0f b6 45 ff          	movzbl 0xffffffff(%ebp),%eax
}
  102d39:	c9                   	leave  
  102d3a:	c3                   	ret    
  102d3b:	90                   	nop    
  102d3c:	8d 74 26 00          	lea    0x0(%esi),%esi

00102d40 <dummy_ide_intr>:

void
dummy_ide_intr(struct trapframe *tf)
{
  102d40:	55                   	push   %ebp
  102d41:	89 e5                	mov    %esp,%ebp
}
  102d43:	5d                   	pop    %ebp
  102d44:	c3                   	ret    
  102d45:	8d 74 26 00          	lea    0x0(%esi),%esi
  102d49:	8d bc 27 00 00 00 00 	lea    0x0(%edi),%edi

00102d50 <ide_init>:

void
ide_init(void)
{
  102d50:	55                   	push   %ebp
  102d51:	89 e5                	mov    %esp,%ebp
  102d53:	83 ec 18             	sub    $0x18,%esp
  int i;

  initlock(&ide_lock, "ide");
  102d56:	c7 44 24 04 a7 a4 11 	movl   $0x11a4a7,0x4(%esp)
  102d5d:	00 
  102d5e:	c7 04 24 60 cd 11 00 	movl   $0x11cd60,(%esp)
  102d65:	e8 a6 2d 00 00       	call   105b10 <initlock>
  reg_irq_handler(IRQ_IDE, ide_intr);
  102d6a:	b8 a0 2f 10 00       	mov    $0x102fa0,%eax
  102d6f:	89 44 24 04          	mov    %eax,0x4(%esp)
  102d73:	c7 04 24 0e 00 00 00 	movl   $0xe,(%esp)
  102d7a:	e8 11 14 00 00       	call   104190 <reg_irq_handler>
  pic_enable(IRQ_IDE);
  102d7f:	c7 04 24 0e 00 00 00 	movl   $0xe,(%esp)
  102d86:	e8 95 14 00 00       	call   104220 <pic_enable>
  ioapic_enable(IRQ_IDE, ncpu - 1);
  102d8b:	a1 0c dd 13 00       	mov    0x13dd0c,%eax
  102d90:	83 e8 01             	sub    $0x1,%eax
  102d93:	89 44 24 04          	mov    %eax,0x4(%esp)
  102d97:	c7 04 24 0e 00 00 00 	movl   $0xe,(%esp)
  102d9e:	e8 cd 04 00 00       	call   103270 <ioapic_enable>
  ide_wait_ready(0);
  102da3:	c7 04 24 00 00 00 00 	movl   $0x0,(%esp)
  102daa:	e8 11 ff ff ff       	call   102cc0 <ide_wait_ready>
  reg_irq_handler(IRQ_IDE_2, dummy_ide_intr);
  102daf:	c7 44 24 04 40 2d 10 	movl   $0x102d40,0x4(%esp)
  102db6:	00 
  102db7:	c7 04 24 0f 00 00 00 	movl   $0xf,(%esp)
  102dbe:	e8 cd 13 00 00       	call   104190 <reg_irq_handler>
  
  // Check if disk 1 is present
  outb(0x1f6, 0xe0 | (1<<4));
  102dc3:	c7 44 24 04 f0 00 00 	movl   $0xf0,0x4(%esp)
  102dca:	00 
  102dcb:	c7 04 24 f6 01 00 00 	movl   $0x1f6,(%esp)
  102dd2:	e8 69 00 00 00       	call   102e40 <outb>
  for(i=0; i<1000; i++){
  102dd7:	c7 45 fc 00 00 00 00 	movl   $0x0,0xfffffffc(%ebp)
  102dde:	eb 20                	jmp    102e00 <ide_init+0xb0>
    if(inb(0x1f7) != 0){
  102de0:	c7 04 24 f7 01 00 00 	movl   $0x1f7,(%esp)
  102de7:	e8 34 ff ff ff       	call   102d20 <inb>
  102dec:	84 c0                	test   %al,%al
  102dee:	74 0c                	je     102dfc <ide_init+0xac>
      disk_1_present = 1;
  102df0:	c7 05 98 cd 11 00 01 	movl   $0x1,0x11cd98
  102df7:	00 00 00 
      break;
  102dfa:	eb 0d                	jmp    102e09 <ide_init+0xb9>
  102dfc:	83 45 fc 01          	addl   $0x1,0xfffffffc(%ebp)
  102e00:	81 7d fc e7 03 00 00 	cmpl   $0x3e7,0xfffffffc(%ebp)
  102e07:	7e d7                	jle    102de0 <ide_init+0x90>
    }
  }
  
  // Switch back to disk 0.
  outb(0x1f6, 0xe0 | (0<<4));
  102e09:	c7 44 24 04 e0 00 00 	movl   $0xe0,0x4(%esp)
  102e10:	00 
  102e11:	c7 04 24 f6 01 00 00 	movl   $0x1f6,(%esp)
  102e18:	e8 23 00 00 00       	call   102e40 <outb>
  outb(0x3f6, 0);  // generate interrupt
  102e1d:	c7 44 24 04 00 00 00 	movl   $0x0,0x4(%esp)
  102e24:	00 
  102e25:	c7 04 24 f6 03 00 00 	movl   $0x3f6,(%esp)
  102e2c:	e8 0f 00 00 00       	call   102e40 <outb>
}
  102e31:	c9                   	leave  
  102e32:	c3                   	ret    
  102e33:	8d b6 00 00 00 00    	lea    0x0(%esi),%esi
  102e39:	8d bc 27 00 00 00 00 	lea    0x0(%edi),%edi

00102e40 <outb>:
}

static inline void
outb(ushort port, uchar data)
{
  102e40:	55                   	push   %ebp
  102e41:	89 e5                	mov    %esp,%ebp
  102e43:	83 ec 08             	sub    $0x8,%esp
  102e46:	8b 45 08             	mov    0x8(%ebp),%eax
  102e49:	8b 55 0c             	mov    0xc(%ebp),%edx
  102e4c:	66 89 45 fc          	mov    %ax,0xfffffffc(%ebp)
  102e50:	88 55 f8             	mov    %dl,0xfffffff8(%ebp)
  asm volatile("out %0,%1" : : "a" (data), "d" (port));
  102e53:	0f b6 45 f8          	movzbl 0xfffffff8(%ebp),%eax
  102e57:	0f b7 55 fc          	movzwl 0xfffffffc(%ebp),%edx
  102e5b:	ee                   	out    %al,(%dx)
}
  102e5c:	c9                   	leave  
  102e5d:	c3                   	ret    
  102e5e:	89 f6                	mov    %esi,%esi

00102e60 <ide_start_request>:

// Start the request for b.  Caller must hold ide_lock.
static void
ide_start_request(struct buf *b)
{
  102e60:	55                   	push   %ebp
  102e61:	89 e5                	mov    %esp,%ebp
  102e63:	83 ec 18             	sub    $0x18,%esp
//    cprintf("XXX ide_start_request\n");
  if(b == 0)
  102e66:	83 7d 08 00          	cmpl   $0x0,0x8(%ebp)
  102e6a:	75 0c                	jne    102e78 <ide_start_request+0x18>
    panic("ide_start_request");
  102e6c:	c7 04 24 ab a4 11 00 	movl   $0x11a4ab,(%esp)
  102e73:	e8 98 e1 ff ff       	call   101010 <panic>

  ide_wait_ready(0);
  102e78:	c7 04 24 00 00 00 00 	movl   $0x0,(%esp)
  102e7f:	e8 3c fe ff ff       	call   102cc0 <ide_wait_ready>
  outb(0x1f2, 1);  // number of sectors
  102e84:	c7 44 24 04 01 00 00 	movl   $0x1,0x4(%esp)
  102e8b:	00 
  102e8c:	c7 04 24 f2 01 00 00 	movl   $0x1f2,(%esp)
  102e93:	e8 a8 ff ff ff       	call   102e40 <outb>
  outb(0x1f3, b->sector & 0xff);
  102e98:	8b 45 08             	mov    0x8(%ebp),%eax
  102e9b:	8b 40 08             	mov    0x8(%eax),%eax
  102e9e:	0f b6 c0             	movzbl %al,%eax
  102ea1:	89 44 24 04          	mov    %eax,0x4(%esp)
  102ea5:	c7 04 24 f3 01 00 00 	movl   $0x1f3,(%esp)
  102eac:	e8 8f ff ff ff       	call   102e40 <outb>
  outb(0x1f4, (b->sector >> 8) & 0xff);
  102eb1:	8b 45 08             	mov    0x8(%ebp),%eax
  102eb4:	8b 40 08             	mov    0x8(%eax),%eax
  102eb7:	c1 e8 08             	shr    $0x8,%eax
  102eba:	0f b6 c0             	movzbl %al,%eax
  102ebd:	89 44 24 04          	mov    %eax,0x4(%esp)
  102ec1:	c7 04 24 f4 01 00 00 	movl   $0x1f4,(%esp)
  102ec8:	e8 73 ff ff ff       	call   102e40 <outb>
  outb(0x1f5, (b->sector >> 16) & 0xff);
  102ecd:	8b 45 08             	mov    0x8(%ebp),%eax
  102ed0:	8b 40 08             	mov    0x8(%eax),%eax
  102ed3:	c1 e8 10             	shr    $0x10,%eax
  102ed6:	0f b6 c0             	movzbl %al,%eax
  102ed9:	89 44 24 04          	mov    %eax,0x4(%esp)
  102edd:	c7 04 24 f5 01 00 00 	movl   $0x1f5,(%esp)
  102ee4:	e8 57 ff ff ff       	call   102e40 <outb>
  outb(0x1f6, 0xe0 | ((b->dev&1)<<4) | ((b->sector>>24)&0x0f));
  102ee9:	8b 45 08             	mov    0x8(%ebp),%eax
  102eec:	8b 40 04             	mov    0x4(%eax),%eax
  102eef:	83 e0 01             	and    $0x1,%eax
  102ef2:	89 c2                	mov    %eax,%edx
  102ef4:	c1 e2 04             	shl    $0x4,%edx
  102ef7:	8b 45 08             	mov    0x8(%ebp),%eax
  102efa:	8b 40 08             	mov    0x8(%eax),%eax
  102efd:	c1 e8 18             	shr    $0x18,%eax
  102f00:	83 e0 0f             	and    $0xf,%eax
  102f03:	09 d0                	or     %edx,%eax
  102f05:	83 c8 e0             	or     $0xffffffe0,%eax
  102f08:	0f b6 c0             	movzbl %al,%eax
  102f0b:	89 44 24 04          	mov    %eax,0x4(%esp)
  102f0f:	c7 04 24 f6 01 00 00 	movl   $0x1f6,(%esp)
  102f16:	e8 25 ff ff ff       	call   102e40 <outb>
  if(b->flags & B_DIRTY){
  102f1b:	8b 45 08             	mov    0x8(%ebp),%eax
  102f1e:	8b 00                	mov    (%eax),%eax
  102f20:	83 e0 04             	and    $0x4,%eax
  102f23:	85 c0                	test   %eax,%eax
  102f25:	74 34                	je     102f5b <ide_start_request+0xfb>
    outb(0x1f7, IDE_CMD_WRITE);
  102f27:	c7 44 24 04 30 00 00 	movl   $0x30,0x4(%esp)
  102f2e:	00 
  102f2f:	c7 04 24 f7 01 00 00 	movl   $0x1f7,(%esp)
  102f36:	e8 05 ff ff ff       	call   102e40 <outb>
    outsl(0x1f0, b->data, 512/4);
  102f3b:	8b 45 08             	mov    0x8(%ebp),%eax
  102f3e:	83 c0 18             	add    $0x18,%eax
  102f41:	c7 44 24 08 80 00 00 	movl   $0x80,0x8(%esp)
  102f48:	00 
  102f49:	89 44 24 04          	mov    %eax,0x4(%esp)
  102f4d:	c7 04 24 f0 01 00 00 	movl   $0x1f0,(%esp)
  102f54:	e8 27 00 00 00       	call   102f80 <outsl>
  102f59:	eb 14                	jmp    102f6f <ide_start_request+0x10f>
  } else {
    outb(0x1f7, IDE_CMD_READ);
  102f5b:	c7 44 24 04 20 00 00 	movl   $0x20,0x4(%esp)
  102f62:	00 
  102f63:	c7 04 24 f7 01 00 00 	movl   $0x1f7,(%esp)
  102f6a:	e8 d1 fe ff ff       	call   102e40 <outb>
  }
}
  102f6f:	c9                   	leave  
  102f70:	c3                   	ret    
  102f71:	eb 0d                	jmp    102f80 <outsl>
  102f73:	90                   	nop    
  102f74:	90                   	nop    
  102f75:	90                   	nop    
  102f76:	90                   	nop    
  102f77:	90                   	nop    
  102f78:	90                   	nop    
  102f79:	90                   	nop    
  102f7a:	90                   	nop    
  102f7b:	90                   	nop    
  102f7c:	90                   	nop    
  102f7d:	90                   	nop    
  102f7e:	90                   	nop    
  102f7f:	90                   	nop    

00102f80 <outsl>:
}

static inline void
outsl(int port, const void *addr, int cnt)
{
  102f80:	55                   	push   %ebp
  102f81:	89 e5                	mov    %esp,%ebp
  102f83:	56                   	push   %esi
  asm volatile("cld\n\trepne\n\toutsl"    :
  102f84:	8b 55 08             	mov    0x8(%ebp),%edx
  102f87:	8b 75 0c             	mov    0xc(%ebp),%esi
  102f8a:	8b 4d 10             	mov    0x10(%ebp),%ecx
  102f8d:	fc                   	cld    
  102f8e:	f2 6f                	repnz outsl %ds:(%esi),(%dx)
  102f90:	89 75 0c             	mov    %esi,0xc(%ebp)
  102f93:	89 4d 10             	mov    %ecx,0x10(%ebp)
                   "=S" (addr), "=c" (cnt)    :
                   "d" (port), "0" (addr), "1" (cnt)  :
                   "cc");
}
  102f96:	5e                   	pop    %esi
  102f97:	5d                   	pop    %ebp
  102f98:	c3                   	ret    
  102f99:	8d b4 26 00 00 00 00 	lea    0x0(%esi),%esi

00102fa0 <ide_intr>:

// Interrupt handler.
void
ide_intr(void)
{
  102fa0:	55                   	push   %ebp
  102fa1:	89 e5                	mov    %esp,%ebp
  102fa3:	83 ec 28             	sub    $0x28,%esp
  struct buf *b;

  acquire(&ide_lock);
  102fa6:	c7 04 24 60 cd 11 00 	movl   $0x11cd60,(%esp)
  102fad:	e8 8e 2b 00 00       	call   105b40 <acquire>
  if((b = ide_queue) == 0){
  102fb2:	a1 94 cd 11 00       	mov    0x11cd94,%eax
  102fb7:	89 45 fc             	mov    %eax,0xfffffffc(%ebp)
  102fba:	83 7d fc 00          	cmpl   $0x0,0xfffffffc(%ebp)
  102fbe:	75 11                	jne    102fd1 <ide_intr+0x31>
    release(&ide_lock);
  102fc0:	c7 04 24 60 cd 11 00 	movl   $0x11cd60,(%esp)
  102fc7:	e8 74 2d 00 00       	call   105d40 <release>
    return;
  102fcc:	e9 90 00 00 00       	jmp    103061 <ide_intr+0xc1>
  }

  // Read data if needed.
  if(!(b->flags & B_DIRTY) && ide_wait_ready(1) >= 0)
  102fd1:	8b 45 fc             	mov    0xfffffffc(%ebp),%eax
  102fd4:	8b 00                	mov    (%eax),%eax
  102fd6:	83 e0 04             	and    $0x4,%eax
  102fd9:	85 c0                	test   %eax,%eax
  102fdb:	75 2e                	jne    10300b <ide_intr+0x6b>
  102fdd:	c7 04 24 01 00 00 00 	movl   $0x1,(%esp)
  102fe4:	e8 d7 fc ff ff       	call   102cc0 <ide_wait_ready>
  102fe9:	85 c0                	test   %eax,%eax
  102feb:	78 1e                	js     10300b <ide_intr+0x6b>
    insl(0x1f0, b->data, 512/4);
  102fed:	8b 45 fc             	mov    0xfffffffc(%ebp),%eax
  102ff0:	83 c0 18             	add    $0x18,%eax
  102ff3:	c7 44 24 08 80 00 00 	movl   $0x80,0x8(%esp)
  102ffa:	00 
  102ffb:	89 44 24 04          	mov    %eax,0x4(%esp)
  102fff:	c7 04 24 f0 01 00 00 	movl   $0x1f0,(%esp)
  103006:	e8 65 00 00 00       	call   103070 <insl>
  
  // Wake process waiting for this buf.
  b->flags |= B_VALID;
  10300b:	8b 45 fc             	mov    0xfffffffc(%ebp),%eax
  10300e:	8b 00                	mov    (%eax),%eax
  103010:	89 c2                	mov    %eax,%edx
  103012:	83 ca 02             	or     $0x2,%edx
  103015:	8b 45 fc             	mov    0xfffffffc(%ebp),%eax
  103018:	89 10                	mov    %edx,(%eax)
  b->flags &= ~B_DIRTY;
  10301a:	8b 45 fc             	mov    0xfffffffc(%ebp),%eax
  10301d:	8b 00                	mov    (%eax),%eax
  10301f:	89 c2                	mov    %eax,%edx
  103021:	83 e2 fb             	and    $0xfffffffb,%edx
  103024:	8b 45 fc             	mov    0xfffffffc(%ebp),%eax
  103027:	89 10                	mov    %edx,(%eax)
  wakeup(b);
  103029:	8b 45 fc             	mov    0xfffffffc(%ebp),%eax
  10302c:	89 04 24             	mov    %eax,(%esp)
  10302f:	e8 ec 25 00 00       	call   105620 <wakeup>
  
  // Start disk on next buf in queue.
  if((ide_queue = b->qnext) != 0)
  103034:	8b 45 fc             	mov    0xfffffffc(%ebp),%eax
  103037:	8b 40 14             	mov    0x14(%eax),%eax
  10303a:	a3 94 cd 11 00       	mov    %eax,0x11cd94
  10303f:	a1 94 cd 11 00       	mov    0x11cd94,%eax
  103044:	85 c0                	test   %eax,%eax
  103046:	74 0d                	je     103055 <ide_intr+0xb5>
    ide_start_request(ide_queue);
  103048:	a1 94 cd 11 00       	mov    0x11cd94,%eax
  10304d:	89 04 24             	mov    %eax,(%esp)
  103050:	e8 0b fe ff ff       	call   102e60 <ide_start_request>

  release(&ide_lock);
  103055:	c7 04 24 60 cd 11 00 	movl   $0x11cd60,(%esp)
  10305c:	e8 df 2c 00 00       	call   105d40 <release>
}
  103061:	c9                   	leave  
  103062:	c3                   	ret    
  103063:	8d b6 00 00 00 00    	lea    0x0(%esi),%esi
  103069:	8d bc 27 00 00 00 00 	lea    0x0(%edi),%edi

00103070 <insl>:
}

static inline void
insl(int port, void *addr, int cnt)
{
  103070:	55                   	push   %ebp
  103071:	89 e5                	mov    %esp,%ebp
  103073:	57                   	push   %edi
  asm volatile("cld\n\trepne\n\tinsl"     :
  103074:	8b 55 08             	mov    0x8(%ebp),%edx
  103077:	8b 7d 0c             	mov    0xc(%ebp),%edi
  10307a:	8b 4d 10             	mov    0x10(%ebp),%ecx
  10307d:	fc                   	cld    
  10307e:	f2 6d                	repnz insl (%dx),%es:(%edi)
  103080:	89 7d 0c             	mov    %edi,0xc(%ebp)
  103083:	89 4d 10             	mov    %ecx,0x10(%ebp)
                   "=D" (addr), "=c" (cnt)    :
                   "d" (port), "0" (addr), "1" (cnt)  :
                   "memory", "cc");
}
  103086:	5f                   	pop    %edi
  103087:	5d                   	pop    %ebp
  103088:	c3                   	ret    
  103089:	8d b4 26 00 00 00 00 	lea    0x0(%esi),%esi

00103090 <ide_rw>:

// Sync buf with disk. 
// If B_DIRTY is set, write buf to disk, clear B_DIRTY, set B_VALID.
// Else if B_VALID is not set, read buf from disk, set B_VALID.
void
ide_rw(struct buf *b)
{
  103090:	55                   	push   %ebp
  103091:	89 e5                	mov    %esp,%ebp
  103093:	83 ec 18             	sub    $0x18,%esp
  struct buf **pp;

  if(!(b->flags & B_BUSY))
  103096:	8b 45 08             	mov    0x8(%ebp),%eax
  103099:	8b 00                	mov    (%eax),%eax
  10309b:	83 e0 01             	and    $0x1,%eax
  10309e:	85 c0                	test   %eax,%eax
  1030a0:	75 0c                	jne    1030ae <ide_rw+0x1e>
    panic("ide_rw: buf not busy");
  1030a2:	c7 04 24 bd a4 11 00 	movl   $0x11a4bd,(%esp)
  1030a9:	e8 62 df ff ff       	call   101010 <panic>
  if((b->flags & (B_VALID|B_DIRTY)) == B_VALID)
  1030ae:	8b 45 08             	mov    0x8(%ebp),%eax
  1030b1:	8b 00                	mov    (%eax),%eax
  1030b3:	83 e0 06             	and    $0x6,%eax
  1030b6:	83 f8 02             	cmp    $0x2,%eax
  1030b9:	75 0c                	jne    1030c7 <ide_rw+0x37>
    panic("ide_rw: nothing to do");
  1030bb:	c7 04 24 d2 a4 11 00 	movl   $0x11a4d2,(%esp)
  1030c2:	e8 49 df ff ff       	call   101010 <panic>
  if(b->dev != 0 && !disk_1_present)
  1030c7:	8b 45 08             	mov    0x8(%ebp),%eax
  1030ca:	8b 40 04             	mov    0x4(%eax),%eax
  1030cd:	85 c0                	test   %eax,%eax
  1030cf:	74 15                	je     1030e6 <ide_rw+0x56>
  1030d1:	a1 98 cd 11 00       	mov    0x11cd98,%eax
  1030d6:	85 c0                	test   %eax,%eax
  1030d8:	75 0c                	jne    1030e6 <ide_rw+0x56>
    panic("ide disk 1 not present");
  1030da:	c7 04 24 e8 a4 11 00 	movl   $0x11a4e8,(%esp)
  1030e1:	e8 2a df ff ff       	call   101010 <panic>

  acquire(&ide_lock);
  1030e6:	c7 04 24 60 cd 11 00 	movl   $0x11cd60,(%esp)
  1030ed:	e8 4e 2a 00 00       	call   105b40 <acquire>

  // Append b to ide_queue.
  b->qnext = 0;
  1030f2:	8b 45 08             	mov    0x8(%ebp),%eax
  1030f5:	c7 40 14 00 00 00 00 	movl   $0x0,0x14(%eax)
  for(pp=&ide_queue; *pp; pp=&(*pp)->qnext)
  1030fc:	c7 45 fc 94 cd 11 00 	movl   $0x11cd94,0xfffffffc(%ebp)
  103103:	eb 0b                	jmp    103110 <ide_rw+0x80>
  103105:	8b 45 fc             	mov    0xfffffffc(%ebp),%eax
  103108:	8b 00                	mov    (%eax),%eax
  10310a:	83 c0 14             	add    $0x14,%eax
  10310d:	89 45 fc             	mov    %eax,0xfffffffc(%ebp)
  103110:	8b 45 fc             	mov    0xfffffffc(%ebp),%eax
  103113:	8b 00                	mov    (%eax),%eax
  103115:	85 c0                	test   %eax,%eax
  103117:	75 ec                	jne    103105 <ide_rw+0x75>
    ;
  *pp = b;
  103119:	8b 45 fc             	mov    0xfffffffc(%ebp),%eax
  10311c:	8b 55 08             	mov    0x8(%ebp),%edx
  10311f:	89 10                	mov    %edx,(%eax)
  
  // Start disk if necessary.
  if(ide_queue == b)
  103121:	a1 94 cd 11 00       	mov    0x11cd94,%eax
  103126:	3b 45 08             	cmp    0x8(%ebp),%eax
  103129:	75 20                	jne    10314b <ide_rw+0xbb>
    ide_start_request(b);
  10312b:	8b 45 08             	mov    0x8(%ebp),%eax
  10312e:	89 04 24             	mov    %eax,(%esp)
  103131:	e8 2a fd ff ff       	call   102e60 <ide_start_request>
  
  // Wait for request to finish.
  // Assuming will not sleep too long: ignore cp->killed.
  while((b->flags & (B_VALID|B_DIRTY)) != B_VALID)
  103136:	eb 13                	jmp    10314b <ide_rw+0xbb>
  {
    sleep(b, &ide_lock);
  103138:	c7 44 24 04 60 cd 11 	movl   $0x11cd60,0x4(%esp)
  10313f:	00 
  103140:	8b 45 08             	mov    0x8(%ebp),%eax
  103143:	89 04 24             	mov    %eax,(%esp)
  103146:	e8 45 23 00 00       	call   105490 <sleep>
  10314b:	8b 45 08             	mov    0x8(%ebp),%eax
  10314e:	8b 00                	mov    (%eax),%eax
  103150:	83 e0 06             	and    $0x6,%eax
  103153:	83 f8 02             	cmp    $0x2,%eax
  103156:	75 e0                	jne    103138 <ide_rw+0xa8>
  }
//  cprintf("XXX ide_rw: finished\n");

  release(&ide_lock);
  103158:	c7 04 24 60 cd 11 00 	movl   $0x11cd60,(%esp)
  10315f:	e8 dc 2b 00 00       	call   105d40 <release>
}
  103164:	c9                   	leave  
  103165:	c3                   	ret    
  103166:	90                   	nop    
  103167:	90                   	nop    
  103168:	90                   	nop    
  103169:	90                   	nop    
  10316a:	90                   	nop    
  10316b:	90                   	nop    
  10316c:	90                   	nop    
  10316d:	90                   	nop    
  10316e:	90                   	nop    
  10316f:	90                   	nop    

00103170 <ioapic_read>:
};

static uint
ioapic_read(int reg)
{
  103170:	55                   	push   %ebp
  103171:	89 e5                	mov    %esp,%ebp
  ioapic->reg = reg;
  103173:	8b 15 b4 cb 13 00    	mov    0x13cbb4,%edx
  103179:	8b 45 08             	mov    0x8(%ebp),%eax
  10317c:	89 02                	mov    %eax,(%edx)
  return ioapic->data;
  10317e:	a1 b4 cb 13 00       	mov    0x13cbb4,%eax
  103183:	8b 40 10             	mov    0x10(%eax),%eax
}
  103186:	5d                   	pop    %ebp
  103187:	c3                   	ret    
  103188:	90                   	nop    
  103189:	8d b4 26 00 00 00 00 	lea    0x0(%esi),%esi

00103190 <ioapic_write>:

static void
ioapic_write(int reg, uint data)
{
  103190:	55                   	push   %ebp
  103191:	89 e5                	mov    %esp,%ebp
  ioapic->reg = reg;
  103193:	8b 15 b4 cb 13 00    	mov    0x13cbb4,%edx
  103199:	8b 45 08             	mov    0x8(%ebp),%eax
  10319c:	89 02                	mov    %eax,(%edx)
  ioapic->data = data;
  10319e:	8b 15 b4 cb 13 00    	mov    0x13cbb4,%edx
  1031a4:	8b 45 0c             	mov    0xc(%ebp),%eax
  1031a7:	89 42 10             	mov    %eax,0x10(%edx)
}
  1031aa:	5d                   	pop    %ebp
  1031ab:	c3                   	ret    
  1031ac:	8d 74 26 00          	lea    0x0(%esi),%esi

001031b0 <ioapic_init>:

void
ioapic_init(void)
{
  1031b0:	55                   	push   %ebp
  1031b1:	89 e5                	mov    %esp,%ebp
  1031b3:	83 ec 18             	sub    $0x18,%esp
  int i, id, maxintr;

  if(!ismp)
  1031b6:	a1 00 cc 13 00       	mov    0x13cc00,%eax
  1031bb:	85 c0                	test   %eax,%eax
  1031bd:	0f 84 9c 00 00 00    	je     10325f <ioapic_init+0xaf>
    return;

  ioapic = (volatile struct ioapic*)IOAPIC;
  1031c3:	c7 05 b4 cb 13 00 00 	movl   $0xfec00000,0x13cbb4
  1031ca:	00 c0 fe 
  maxintr = (ioapic_read(REG_VER) >> 16) & 0xFF;
  1031cd:	c7 04 24 01 00 00 00 	movl   $0x1,(%esp)
  1031d4:	e8 97 ff ff ff       	call   103170 <ioapic_read>
  1031d9:	c1 e8 10             	shr    $0x10,%eax
  1031dc:	25 ff 00 00 00       	and    $0xff,%eax
  1031e1:	89 45 fc             	mov    %eax,0xfffffffc(%ebp)
  id = ioapic_read(REG_ID) >> 24;
  1031e4:	c7 04 24 00 00 00 00 	movl   $0x0,(%esp)
  1031eb:	e8 80 ff ff ff       	call   103170 <ioapic_read>
  1031f0:	c1 e8 18             	shr    $0x18,%eax
  1031f3:	89 45 f8             	mov    %eax,0xfffffff8(%ebp)
  if(id != ioapic_id)
  1031f6:	0f b6 05 04 cc 13 00 	movzbl 0x13cc04,%eax
  1031fd:	0f b6 c0             	movzbl %al,%eax
  103200:	3b 45 f8             	cmp    0xfffffff8(%ebp),%eax
  103203:	74 0c                	je     103211 <ioapic_init+0x61>
    cprintf("ioapic_init: id isn't equal to ioapic_id; not a MP\n");
  103205:	c7 04 24 00 a5 11 00 	movl   $0x11a500,(%esp)
  10320c:	e8 ff d4 ff ff       	call   100710 <cprintf>

  // Mark all interrupts edge-triggered, active high, disabled,
  // and not routed to any CPUs.
  for(i = 0; i <= maxintr; i++){
  103211:	c7 45 f4 00 00 00 00 	movl   $0x0,0xfffffff4(%ebp)
  103218:	eb 3d                	jmp    103257 <ioapic_init+0xa7>
    ioapic_write(REG_TABLE+2*i, INT_DISABLED | (IRQ_OFFSET + i));
  10321a:	8b 45 f4             	mov    0xfffffff4(%ebp),%eax
  10321d:	83 c0 20             	add    $0x20,%eax
  103220:	0d 00 00 10 00       	or     $0x100000,%eax
  103225:	89 c2                	mov    %eax,%edx
  103227:	8b 45 f4             	mov    0xfffffff4(%ebp),%eax
  10322a:	01 c0                	add    %eax,%eax
  10322c:	83 c0 10             	add    $0x10,%eax
  10322f:	89 54 24 04          	mov    %edx,0x4(%esp)
  103233:	89 04 24             	mov    %eax,(%esp)
  103236:	e8 55 ff ff ff       	call   103190 <ioapic_write>
    ioapic_write(REG_TABLE+2*i+1, 0);
  10323b:	8b 45 f4             	mov    0xfffffff4(%ebp),%eax
  10323e:	01 c0                	add    %eax,%eax
  103240:	83 c0 11             	add    $0x11,%eax
  103243:	c7 44 24 04 00 00 00 	movl   $0x0,0x4(%esp)
  10324a:	00 
  10324b:	89 04 24             	mov    %eax,(%esp)
  10324e:	e8 3d ff ff ff       	call   103190 <ioapic_write>
  103253:	83 45 f4 01          	addl   $0x1,0xfffffff4(%ebp)
  103257:	8b 45 f4             	mov    0xfffffff4(%ebp),%eax
  10325a:	3b 45 fc             	cmp    0xfffffffc(%ebp),%eax
  10325d:	7e bb                	jle    10321a <ioapic_init+0x6a>
  }
}
  10325f:	c9                   	leave  
  103260:	c3                   	ret    
  103261:	eb 0d                	jmp    103270 <ioapic_enable>
  103263:	90                   	nop    
  103264:	90                   	nop    
  103265:	90                   	nop    
  103266:	90                   	nop    
  103267:	90                   	nop    
  103268:	90                   	nop    
  103269:	90                   	nop    
  10326a:	90                   	nop    
  10326b:	90                   	nop    
  10326c:	90                   	nop    
  10326d:	90                   	nop    
  10326e:	90                   	nop    
  10326f:	90                   	nop    

00103270 <ioapic_enable>:

void
ioapic_enable(int irq, int cpunum)
{
  103270:	55                   	push   %ebp
  103271:	89 e5                	mov    %esp,%ebp
  103273:	83 ec 08             	sub    $0x8,%esp
  if(!ismp)
  103276:	a1 00 cc 13 00       	mov    0x13cc00,%eax
  10327b:	85 c0                	test   %eax,%eax
  10327d:	74 38                	je     1032b7 <ioapic_enable+0x47>
    return;

  // Mark interrupt edge-triggered, active high,
  // enabled, and routed to the given cpunum,
  // which happens to be that cpu's APIC ID.
  ioapic_write(REG_TABLE+2*irq, IRQ_OFFSET + irq);
  10327f:	8b 45 08             	mov    0x8(%ebp),%eax
  103282:	83 c0 20             	add    $0x20,%eax
  103285:	89 c2                	mov    %eax,%edx
  103287:	8b 45 08             	mov    0x8(%ebp),%eax
  10328a:	01 c0                	add    %eax,%eax
  10328c:	83 c0 10             	add    $0x10,%eax
  10328f:	89 54 24 04          	mov    %edx,0x4(%esp)
  103293:	89 04 24             	mov    %eax,(%esp)
  103296:	e8 f5 fe ff ff       	call   103190 <ioapic_write>
  ioapic_write(REG_TABLE+2*irq+1, cpunum << 24);
  10329b:	8b 45 0c             	mov    0xc(%ebp),%eax
  10329e:	c1 e0 18             	shl    $0x18,%eax
  1032a1:	89 c2                	mov    %eax,%edx
  1032a3:	8b 45 08             	mov    0x8(%ebp),%eax
  1032a6:	01 c0                	add    %eax,%eax
  1032a8:	83 c0 11             	add    $0x11,%eax
  1032ab:	89 54 24 04          	mov    %edx,0x4(%esp)
  1032af:	89 04 24             	mov    %eax,(%esp)
  1032b2:	e8 d9 fe ff ff       	call   103190 <ioapic_write>
}
  1032b7:	c9                   	leave  
  1032b8:	c3                   	ret    
  1032b9:	90                   	nop    
  1032ba:	90                   	nop    
  1032bb:	90                   	nop    
  1032bc:	90                   	nop    
  1032bd:	90                   	nop    
  1032be:	90                   	nop    
  1032bf:	90                   	nop    

001032c0 <kinit>:
// pages after _end.  Real systems would determine the
// amount of memory available in the system and use it all.
void
kinit(void)
{
  1032c0:	55                   	push   %ebp
  1032c1:	89 e5                	mov    %esp,%ebp
  1032c3:	83 ec 18             	sub    $0x18,%esp
  extern int end;
  uint mem;
  char *start;

  initlock(&kalloc_lock, "kalloc");
  1032c6:	c7 44 24 04 34 a5 11 	movl   $0x11a534,0x4(%esp)
  1032cd:	00 
  1032ce:	c7 04 24 c0 cb 13 00 	movl   $0x13cbc0,(%esp)
  1032d5:	e8 36 28 00 00       	call   105b10 <initlock>
  start = (char*) &end;
  1032da:	c7 45 fc 70 16 14 00 	movl   $0x141670,0xfffffffc(%ebp)
  start = (char*) (((uint)start + PAGE) & ~(PAGE-1));
  1032e1:	8b 45 fc             	mov    0xfffffffc(%ebp),%eax
  1032e4:	05 00 10 00 00       	add    $0x1000,%eax
  1032e9:	25 00 f0 ff ff       	and    $0xfffff000,%eax
  1032ee:	89 45 fc             	mov    %eax,0xfffffffc(%ebp)
  mem = 256; // assume computer has 256 pages of RAM
  1032f1:	c7 45 f8 00 01 00 00 	movl   $0x100,0xfffffff8(%ebp)
  cprintf("mem = %d\n", mem * PAGE);
  1032f8:	8b 45 f8             	mov    0xfffffff8(%ebp),%eax
  1032fb:	c1 e0 0c             	shl    $0xc,%eax
  1032fe:	89 44 24 04          	mov    %eax,0x4(%esp)
  103302:	c7 04 24 3b a5 11 00 	movl   $0x11a53b,(%esp)
  103309:	e8 02 d4 ff ff       	call   100710 <cprintf>
  kfree(start, mem * PAGE);
  10330e:	8b 45 f8             	mov    0xfffffff8(%ebp),%eax
  103311:	c1 e0 0c             	shl    $0xc,%eax
  103314:	89 44 24 04          	mov    %eax,0x4(%esp)
  103318:	8b 45 fc             	mov    0xfffffffc(%ebp),%eax
  10331b:	89 04 24             	mov    %eax,(%esp)
  10331e:	e8 0d 00 00 00       	call   103330 <kfree>
}
  103323:	c9                   	leave  
  103324:	c3                   	ret    
  103325:	8d 74 26 00          	lea    0x0(%esi),%esi
  103329:	8d bc 27 00 00 00 00 	lea    0x0(%edi),%edi

00103330 <kfree>:

// Free the len bytes of memory pointed at by v,
// which normally should have been returned by a
// call to kalloc(len).  (The exception is when
// initializing the allocator; see kinit above.)
void
kfree(char *v, int len)
{
  103330:	55                   	push   %ebp
  103331:	89 e5                	mov    %esp,%ebp
  103333:	83 ec 38             	sub    $0x38,%esp
  struct run *r, *rend, **rp, *p, *pend;

#ifdef MEM_DEBUG
  cprintf("kfree: %d pages\n", len / PAGE);
#endif
  if(len <= 0 || len % PAGE)
  103336:	83 7d 0c 00          	cmpl   $0x0,0xc(%ebp)
  10333a:	7e 0c                	jle    103348 <kfree+0x18>
  10333c:	8b 45 0c             	mov    0xc(%ebp),%eax
  10333f:	25 ff 0f 00 00       	and    $0xfff,%eax
  103344:	85 c0                	test   %eax,%eax
  103346:	74 1f                	je     103367 <kfree+0x37>
  {
    cprintf("kfree: length = %d\n", len);
  103348:	8b 45 0c             	mov    0xc(%ebp),%eax
  10334b:	89 44 24 04          	mov    %eax,0x4(%esp)
  10334f:	c7 04 24 45 a5 11 00 	movl   $0x11a545,(%esp)
  103356:	e8 b5 d3 ff ff       	call   100710 <cprintf>
    panic("kfree");
  10335b:	c7 04 24 59 a5 11 00 	movl   $0x11a559,(%esp)
  103362:	e8 a9 dc ff ff       	call   101010 <panic>
  }

  // Fill with junk to catch dangling refs.
  memset(v, 1, len);
  103367:	8b 45 0c             	mov    0xc(%ebp),%eax
  10336a:	89 44 24 08          	mov    %eax,0x8(%esp)
  10336e:	c7 44 24 04 01 00 00 	movl   $0x1,0x4(%esp)
  103375:	00 
  103376:	8b 45 08             	mov    0x8(%ebp),%eax
  103379:	89 04 24             	mov    %eax,(%esp)
  10337c:	e8 7f 2b 00 00       	call   105f00 <memset>

  acquire(&kalloc_lock);
  103381:	c7 04 24 c0 cb 13 00 	movl   $0x13cbc0,(%esp)
  103388:	e8 b3 27 00 00       	call   105b40 <acquire>
  p = (struct run*)v;
  10338d:	8b 45 08             	mov    0x8(%ebp),%eax
  103390:	89 45 f8             	mov    %eax,0xfffffff8(%ebp)
  pend = (struct run*)(v + len);
  103393:	8b 45 0c             	mov    0xc(%ebp),%eax
  103396:	03 45 08             	add    0x8(%ebp),%eax
  103399:	89 45 fc             	mov    %eax,0xfffffffc(%ebp)
  for(rp=&freelist; (r=*rp) != 0 && r <= pend; rp=&r->next){
  10339c:	c7 45 f4 f4 cb 13 00 	movl   $0x13cbf4,0xfffffff4(%ebp)
  1033a3:	e9 b3 00 00 00       	jmp    10345b <kfree+0x12b>
    rend = (struct run*)((char*)r + r->len);
  1033a8:	8b 45 ec             	mov    0xffffffec(%ebp),%eax
  1033ab:	8b 40 04             	mov    0x4(%eax),%eax
  1033ae:	89 c2                	mov    %eax,%edx
  1033b0:	8b 45 ec             	mov    0xffffffec(%ebp),%eax
  1033b3:	8d 04 02             	lea    (%edx,%eax,1),%eax
  1033b6:	89 45 f0             	mov    %eax,0xfffffff0(%ebp)
    if(r <= p && p < rend)
  1033b9:	8b 45 ec             	mov    0xffffffec(%ebp),%eax
  1033bc:	3b 45 f8             	cmp    0xfffffff8(%ebp),%eax
  1033bf:	77 14                	ja     1033d5 <kfree+0xa5>
  1033c1:	8b 45 f8             	mov    0xfffffff8(%ebp),%eax
  1033c4:	3b 45 f0             	cmp    0xfffffff0(%ebp),%eax
  1033c7:	73 0c                	jae    1033d5 <kfree+0xa5>
      panic("freeing free page");
  1033c9:	c7 04 24 5f a5 11 00 	movl   $0x11a55f,(%esp)
  1033d0:	e8 3b dc ff ff       	call   101010 <panic>
    if(pend == r){  // p next to r: replace r with p
  1033d5:	8b 45 fc             	mov    0xfffffffc(%ebp),%eax
  1033d8:	3b 45 ec             	cmp    0xffffffec(%ebp),%eax
  1033db:	75 28                	jne    103405 <kfree+0xd5>
      p->len = len + r->len;
  1033dd:	8b 45 ec             	mov    0xffffffec(%ebp),%eax
  1033e0:	8b 40 04             	mov    0x4(%eax),%eax
  1033e3:	89 c2                	mov    %eax,%edx
  1033e5:	03 55 0c             	add    0xc(%ebp),%edx
  1033e8:	8b 45 f8             	mov    0xfffffff8(%ebp),%eax
  1033eb:	89 50 04             	mov    %edx,0x4(%eax)
      p->next = r->next;
  1033ee:	8b 45 ec             	mov    0xffffffec(%ebp),%eax
  1033f1:	8b 10                	mov    (%eax),%edx
  1033f3:	8b 45 f8             	mov    0xfffffff8(%ebp),%eax
  1033f6:	89 10                	mov    %edx,(%eax)
      *rp = p;
  1033f8:	8b 55 f4             	mov    0xfffffff4(%ebp),%edx
  1033fb:	8b 45 f8             	mov    0xfffffff8(%ebp),%eax
  1033fe:	89 02                	mov    %eax,(%edx)
      goto out;
  103400:	e9 89 00 00 00       	jmp    10348e <kfree+0x15e>
    }
    if(rend == p){  // r next to p: replace p with r
  103405:	8b 45 f0             	mov    0xfffffff0(%ebp),%eax
  103408:	3b 45 f8             	cmp    0xfffffff8(%ebp),%eax
  10340b:	75 48                	jne    103455 <kfree+0x125>
      r->len += len;
  10340d:	8b 45 ec             	mov    0xffffffec(%ebp),%eax
  103410:	8b 40 04             	mov    0x4(%eax),%eax
  103413:	89 c2                	mov    %eax,%edx
  103415:	03 55 0c             	add    0xc(%ebp),%edx
  103418:	8b 45 ec             	mov    0xffffffec(%ebp),%eax
  10341b:	89 50 04             	mov    %edx,0x4(%eax)
      if(r->next && r->next == pend){  // r now next to r->next?
  10341e:	8b 45 ec             	mov    0xffffffec(%ebp),%eax
  103421:	8b 00                	mov    (%eax),%eax
  103423:	85 c0                	test   %eax,%eax
  103425:	74 67                	je     10348e <kfree+0x15e>
  103427:	8b 45 ec             	mov    0xffffffec(%ebp),%eax
  10342a:	8b 00                	mov    (%eax),%eax
  10342c:	3b 45 fc             	cmp    0xfffffffc(%ebp),%eax
  10342f:	75 5d                	jne    10348e <kfree+0x15e>
        r->len += r->next->len;
  103431:	8b 45 ec             	mov    0xffffffec(%ebp),%eax
  103434:	8b 50 04             	mov    0x4(%eax),%edx
  103437:	8b 45 ec             	mov    0xffffffec(%ebp),%eax
  10343a:	8b 00                	mov    (%eax),%eax
  10343c:	8b 40 04             	mov    0x4(%eax),%eax
